******************************************************************************
                  TI ARM Linker PC v20.2.4                     
******************************************************************************
>> Linked Tue Jun  1 13:53:31 2021

OUTPUT FILE NAME:   <empty_EK_TM4C1294XL_TI.out>
ENTRY POINT SYMBOL: "_c_int00"  address: 0000c925


MEMORY CONFIGURATION

         name            origin    length      used     unused   attr    fill
----------------------  --------  ---------  --------  --------  ----  --------
  FLASH                 00000000   00100000  00014fae  000eb052  R  X
  SRAM                  20000000   00040000  00005222  0003adde  RW X


SEGMENT ALLOCATION MAP

run origin  load origin   length   init length attrs members
----------  ----------- ---------- ----------- ----- -------
00000000    00000000    00014fb8   00014fb8    r-x
  00000000    00000000    0000003c   0000003c    r-- .resetVecs
  00000040    00000040    0000ff52   0000ff52    r-x .text
  0000ff98    0000ff98    00004be0   00004be0    r-- .const
  00014b78    00014b78    00000440   00000440    r-- .cinit
20000000    20000000    00005228   00000000    rw-
  20000000    20000000    00000360   00000000    rw- .vecs
  20000360    20000360    00003eaa   00000000    rw- .bss
  2000420c    2000420c    00000d18   00000000    rw- .data
  20004f28    20004f28    00000300   00000000    rw- .stack


SECTION ALLOCATION MAP

 output                                  attributes/
section   page    origin      length       input sections
--------  ----  ----------  ----------   ----------------
.text      0    00000040    0000ff52     
                  00000040    00000a4e     rtsv7M4_T_le_v4SPD16_eabi.lib : _printfi.c.obj (.text:__TI_printfi)
                  00000a8e    00000002                                   : _lock.c.obj (.text:_nop)
                  00000a90    000009c0                                   : e_pow.c.obj (.text:pow)
                  00001450    000006ac     MotorLib.lib : motorlib.obj (.text)
                  00001afc    00000004     driverlib.lib : i2c.obj (.text:I2CMasterControl)
                  00001b00    00000430     sysbios.aem4f : BIOS.obj (.text:ti_sysbios_family_arm_m3_Hwi_excDumpRegs__I)
                  00001f30    00000400     grlib_demo.obj (.text:drawGraphPoint)
                  00002330    00000374     grlib.lib : image.obj (.text:InternalImageDraw)
                  000026a4    00000004     driverlib.lib : i2c.obj (.text:I2CMasterDataGet)
                  000026a8    0000034c     sysbios.aem4f : BIOS.obj (.text:ti_sysbios_knl_Event_pend__E)
                  000029f4    0000034c     ti.targets.arm.rtsarm.aem4f : System.oem4f (.text:xdc_runtime_System_doPrint__I)
                  00002d40    000002f8     grlib.lib : image.obj (.text:PixelTransparentDraw)
                  00003038    000002d0     sysbios.aem4f : BIOS.obj (.text:ti_sysbios_knl_Semaphore_pend__E)
                  00003308    000002a0     rtsv7M4_T_le_v4SPD16_eabi.lib : mktime.c.obj (.text:__mktime32)
                  000035a8    00000270                                   : _printfi.c.obj (.text:_pconv_a)
                  00003818    0000026c     sysbios.aem4f : BIOS.obj (.text:ti_sysbios_heaps_HeapMem_free__E)
                  00003a84    00000268     touch.obj (.text:TouchScreenDebouncer)
                  00003cec    00000254     grlib.lib : string.obj (.text:GrFontGlyphRender)
                  00003f40    00000250     sysbios.aem4f : BIOS.obj (.text:ti_sysbios_heaps_HeapMem_alloc__E)
                  00004190    00000234                   : BIOS.obj (.text:ti_sysbios_knl_Task_Instance_finalize__E)
                  000043c4    0000020c     drivers_tivaware.aem4f : UARTTiva.oem4f (.text:UARTTiva_open)
                  000045d0    00000204     Boot.aem4f : Boot_sysctl.oem4f (.text:ti_catalog_arm_cortexm4_tiva_ce_Boot_sysCtlClockFreqSetI__I)
                  000047d4    00000200     driverlib.lib : sysctl.obj (.text:SysCtlClockFreqSet)
                  000049d4    00000200     rtsv7M4_T_le_v4SPD16_eabi.lib : s_exp2.c.obj (.text:exp2)
                  00004bd4    00000004     driverlib.lib : i2c.obj (.text:I2CMasterDataPut)
                  00004bd8    000001f4     sysbios.aem4f : BIOS.obj (.text:ti_sysbios_family_arm_m3_Hwi_excHandlerMax__I)
                  00004dcc    00000004     driverlib.lib : uart.obj (.text:UARTIntClear)
                  00004dd0    000001f0     sysbios.aem4f : BIOS.obj (.text:ti_sysbios_knl_Task_sleep__E)
                  00004fc0    000001e8     empty_pem4f.oem4f (.text:xdc_runtime_System_printfExtend__I)
                  000051a8    000001e4     Kentec320x240x16_ssd2119_spi.obj (.text:Kentec320x240x16_SSD2119Init)
                  0000538c    000001dc     Kentec320x240x16_ssd2119_spi.obj (.text:Kentec320x240x16_SSD2119PixelDrawMultiple)
                  00005568    000001d4     grlib_demo.obj (.text:OnGraphsPage)
                  0000573c    000001d0     rtsv7M4_T_le_v4SPD16_eabi.lib : _printfi.c.obj (.text:_pconv_g)
                  0000590c    00000004     grlib.lib : widget.obj (.text:WidgetDefaultMsgProc)
                  00005910    000001c0     sysbios.aem4f : BIOS.obj (.text:ti_sysbios_knl_Task_Instance_init__E)
                  00005ad0    000001b8     motor_api.obj (.text:motorFxn)
                  00005c88    000001b6     rtsv7M4_T_le_v4SPD16_eabi.lib : fd_add_t2.asm.obj (.text)
                  00005e3e    00000002                                   : div0.asm.obj (.text)
                  00005e40    000001a4     pinout.obj (.text:PinoutSet)
                  00005fe4    00000190     grlib.lib : canvas.obj (.text:CanvasPaint)
                  00006174    0000017e               : pushbutton.obj (.text:RectangularButtonPaint)
                  000062f2    00000002     empty_pem4f.oem4f (.text:ti_sysbios_BIOS_nullFunc__I)
                  000062f4    00000178     touch.obj (.text:TouchScreenIntHandler)
                  0000646c    00000174     motor_api.obj (.text:initMotor)
                  000065e0    00000174     sysbios.aem4f : BIOS.obj (.text:ti_sysbios_family_arm_m3_Hwi_excBusFault__I)
                  00006754    00000170     drivers_tivaware.aem4f : PWMTiva.oem4f (.text:PWMTiva_open)
                  000068c4    00000004     rtsv7M4_T_le_v4SPD16_eabi.lib : exit.c.obj (.text:abort:abort)
                  000068c8    00000164     sysbios.aem4f : BIOS.obj (.text:ti_sysbios_family_arm_m3_Hwi_excUsageFault__I)
                  00006a2c    0000015c     grlib_demo.obj (.text:initWidgets)
                  00006b88    00000158     rtsv7M4_T_le_v4SPD16_eabi.lib : e_sqrt.c.obj (.text:sqrt)
                  00006ce0    00000150     drivers_tivaware.aem4f : GPIOTiva.oem4f (.text:GPIO_setConfig)
                  00006e30    00000148     motor_api.obj (.text:initHallABC)
                  00006f78    00000148     sysbios.aem4f : BIOS.obj (.text:ti_sysbios_family_arm_m3_Hwi_excMemFault__I)
                  000070c0    0000013c     rtsv7M4_T_le_v4SPD16_eabi.lib : _printfi.c.obj (.text:_pconv_e)
                  000071fc    00000004     empty_pem4f.oem4f (.text:ti_sysbios_BIOS_RtsGateProxy_enter__E)
                  00007200    0000013c     sysbios.aem4f : BIOS.obj (.text:ti_sysbios_heaps_HeapMem_Instance_init__E)
                  0000733c    00000136     rtsv7M4_T_le_v4SPD16_eabi.lib : fd_div_t2.asm.obj (.text)
                  00007472    00000002     empty_pem4f.oem4f (.text:xdc_runtime_Startup_reset__I)
                  00007474    00000134     rtsv7M4_T_le_v4SPD16_eabi.lib : localtim.c.obj (.text:__localtime32)
                  000075a8    00000132     driverlib.lib : gpio.obj (.text:GPIOPadConfigSet)
                  000076da    00000002     --HOLE-- [fill = 0]
                  000076dc    00000124     grlib_demo.obj (.text:OnSettingsPage)
                  00007800    00000124     rtsv7M4_T_le_v4SPD16_eabi.lib : _printfi.c.obj (.text:fcvt)
                  00007924    00000004     empty_pem4f.oem4f (.text:ti_sysbios_BIOS_RtsGateProxy_leave__E)
                  00007928    00000120     sysbios.aem4f : BIOS.obj (.text:ti_sysbios_family_arm_lm4_Timer_start__E)
                  00007a48    0000011c                   : BIOS.obj (.text:ti_sysbios_knl_Clock_Instance_init__E)
                  00007b64    00000118     ti.targets.arm.rtsarm.aem4f : Error.oem4f (.text:xdc_runtime_Error_policyDefault__E)
                  00007c7c    00000114     drivers_tivaware.aem4f : PWMTimerTiva.oem4f (.text:PWMTimerTiva_open)
                  00007d90    00000114     sensors_api.obj (.text:initAcceleration)
                  00007ea4    00000114     empty.obj (.text:main)
                  00007fb8    00000110     rtsv7M4_T_le_v4SPD16_eabi.lib : s_scalbn.c.obj (.text:scalbn)
                  000080c8    0000010c     Kentec320x240x16_ssd2119_spi.obj (.text:Kentec320x240x16_SSD2119RectFill)
                  000081d4    0000010c     touch.obj (.text:TouchScreenInit)
                  000082e0    00000106     grlib.lib : line.obj (.text:GrLineDraw)
                  000083e6    00000002     --HOLE-- [fill = 0]
                  000083e8    00000104     sysbios.aem4f : BIOS.obj (.text:ti_sysbios_knl_Event_post__E)
                  000084ec    00000100     ti.targets.arm.rtsarm.aem4f : Core-mem.oem4f (.text:xdc_runtime_Core_createObject__I)
                  000085ec    000000fc     rtsv7M4_T_le_v4SPD16_eabi.lib : fd_mul_t2.asm.obj (.text)
                  000086e8    000000f8     motor_api.obj (.text:filterFxn)
                  000087e0    000000f8     bmi160.obj (.text:getAccelVector)
                  000088d8    000000f8     ti.targets.arm.rtsarm.aem4f : Startup.oem4f (.text:xdc_runtime_Startup_startMods__I)
                  000089d0    000000f4     sysbios.aem4f : m3_Hwi_asm.obj (.text:ti_sysbios_family_arm_m3_Hwi_dispatch__I)
                  00008ac4    000000f2     grlib.lib : pushbutton.obj (.text:RectangularButtonClick)
                  00008bb6    000000f0     drivers_tivaware.aem4f : PWMTiva.oem4f (.text:PWMTiva_setDuty)
                  00008ca6    00000002     --HOLE-- [fill = 0]
                  00008ca8    000000ec     sensors_api.obj (.text:taskAcceleration)
                  00008d94    00000004     sysbios.aem4f : BIOS.obj (.text:ti_sysbios_family_arm_lm4_Timer_masterEnable__I)
                  00008d98    000000ec                   : BIOS.obj (.text:ti_sysbios_knl_Semaphore_post__E)
                  00008e84    000000e8     grlib.lib : widget.obj (.text:WidgetMessageQueueAdd)
                  00008f6c    000000e0     drivers_tivaware.aem4f : I2CTiva.oem4f (.text:I2CTiva_open)
                  0000904c    000000d6                            : I2CTiva.oem4f (.text:I2CTiva_hwiFxn)
                  00009122    00000002     --HOLE-- [fill = 0]
                  00009124    000000cc     ti.targets.arm.rtsarm.aem4f : Core-smem.oem4f (.text:xdc_runtime_Core_constructObject__I)
                  000091f0    000000c4     motor_api.obj (.text:HallFxn)
                  000092b4    000000c4     sensors_api.obj (.text:initLightTask)
                  00009378    000000c2     bmi160.obj (.text:BMI160Init)
                  0000943a    000000c0     grlib.lib : string.obj (.text:GrDefaultStringRenderer)
                  000094fa    00000002     --HOLE-- [fill = 0]
                  000094fc    000000c0     sensors_api.obj (.text:initSensors)
                  000095bc    000000bc     motor_api.obj (.text:PIControlFxn)
                  00009678    000000bc     sysbios.aem4f : BIOS.obj (.text:ti_sysbios_family_arm_m3_Hwi_excDebugMon__I)
                  00009734    00000004     empty_pem4f.oem4f (.text:ti_sysbios_family_arm_m3_Hwi_destruct)
                  00009738    000000bc     sysbios.aem4f : BIOS.obj (.text:ti_sysbios_family_arm_m3_Hwi_excHardFault__I)
                  000097f4    000000b8     EK_TM4C1294XL.obj (.text:EK_TM4C1294XL_initGeneral)
                  000098ac    000000b8     grlib.lib : line.obj (.text:GrLineClip)
                  00009964    000000b8     Kentec320x240x16_ssd2119_spi.obj (.text:InitSPILCDInterface)
                  00009a1c    000000b8     grlib_demo.obj (.text:OnDecrease)
                  00009ad4    000000b8     drivers_tivaware.aem4f : PWMTimerTiva.oem4f (.text:PWMTimerTiva_setDuty)
                  00009b8c    000000b4     grlib_demo.obj (.text:OnIncrease)
                  00009c40    000000b4     grlib_demo.obj (.text:OnStartMotor)
                  00009cf4    000000b4     grlib.lib : widget.obj (.text:WidgetMessageSendPostOrder)
                  00009da8    000000b4     sysbios.aem4f : BIOS.obj (.text:ti_sysbios_gates_GateMutex_enter__E)
                  00009e5c    00000004     empty_pem4f.oem4f (.text:ti_sysbios_family_arm_m3_TaskSupport_Module__startupDone__S)
                  00009e60    000000b4     sysbios.aem4f : BIOS.obj (.text:ti_sysbios_knl_Task_checkStacks__E)
                  00009f14    000000b1     rtsv7M4_T_le_v4SPD16_eabi.lib : _printfi.c.obj (.text:_ltostr)
                  00009fc5    00000001     --HOLE-- [fill = 0]
                  00009fc6    000000ac     drivers_tivaware.aem4f : UARTTiva.oem4f (.text:readTaskBlocking)
                  0000a072    00000006     driverlib.lib : gpio.obj (.text:GPIOIntClear)
                  0000a078    000000ac     sysbios.aem4f : BIOS.obj (.text:ti_sysbios_family_arm_lm4_Timer_enableTiva__I)
                  0000a124    000000a8     grlib_demo.obj (.text:initUI)
                  0000a1cc    00000004     empty_pem4f.oem4f (.text:ti_sysbios_hal_Hwi_HwiProxy_delete)
                  0000a1d0    000000a8     sysbios.aem4f : BIOS.obj (.text:ti_sysbios_family_arm_lm4_Timer_enableTimers__I)
                  0000a278    000000a4                   : BIOS.obj (.text:ti_sysbios_knl_Clock_Instance_finalize__E)
                  0000a31c    000000a0     auto_init.aem4f : auto_init.oem4f (.text)
                  0000a3bc    000000a0     ti.targets.arm.rtsarm.aem4f : Text.oem4f (.text:xdc_runtime_Text_putMod__E)
                  0000a45c    0000009c     rtsv7M4_T_le_v4SPD16_eabi.lib : memcpy_t2.asm.obj (.text)
                  0000a4f8    0000009c     sysbios.aem4f : BIOS.obj (.text:ti_sysbios_knl_Semaphore_Instance_init__E)
                  0000a594    0000009a     ti.targets.arm.rtsarm.aem4f : Text.oem4f (.text:xdc_runtime_Text_putSite__E)
                  0000a62e    00000098     drivers_tivaware.aem4f : UARTTiva.oem4f (.text:UARTTiva_readPolling)
                  0000a6c6    00000002     --HOLE-- [fill = 0]
                  0000a6c8    00000098     Boot.aem4f : Boot.oem4f (.text:ti_catalog_arm_cortexm4_tiva_ce_Boot_sysCtlClockFreqSet__E)
                  0000a760    00000096     rtsv7M4_T_le_v4SPD16_eabi.lib : ull_div_t2.asm.obj (.text)
                  0000a7f6    00000094     drivers_tivaware.aem4f : UARTTiva.oem4f (.text:UARTTiva_write)
                  0000a88a    00000006     driverlib.lib : gpio.obj (.text:GPIOPinRead)
                  0000a890    00000094     sysbios.aem4f : BIOS.obj (.text:ti_sysbios_family_arm_m3_Hwi_Instance_init__E)
                  0000a924    00000004     empty_pem4f.oem4f (.text:ti_sysbios_heaps_HeapMem_Module_GateProxy_enter__E)
                  0000a928    00000094     sysbios.aem4f : BIOS.obj (.text:ti_sysbios_family_arm_m3_Hwi_initNVIC__E)
                  0000a9bc    00000004     empty_pem4f.oem4f (.text:ti_sysbios_heaps_HeapMem_Module_GateProxy_leave__E)
                  0000a9c0    00000094     sysbios.aem4f : BIOS.obj (.text:ti_sysbios_knl_Task_postInit__I)
                  0000aa54    0000008c     drivers_tivaware.aem4f : GPIOTiva.oem4f (.text:GPIO_init)
                  0000aae0    0000008c                            : UARTTiva.oem4f (.text:UARTTiva_control)
                  0000ab6c    0000008c     motor_api.obj (.text:accelLimitFxn)
                  0000abf8    0000008c     sysbios.aem4f : m3_TaskSupport_asm.obj (.text:ti_sysbios_family_arm_m3_TaskSupport_buildTaskStack)
                  0000ac84    0000008a     drivers_tivaware.aem4f : UARTTiva.oem4f (.text:readIsrTextBlocking)
                  0000ad0e    00000002     --HOLE-- [fill = 0]
                  0000ad10    00000088                            : PWMTiva.oem4f (.text:PWMTiva_control)
                  0000ad98    00000086     grlib.lib : rectangle.obj (.text:GrRectFill)
                  0000ae1e    00000086     rtsv7M4_T_le_v4SPD16_eabi.lib : fd_cmp_t2.asm.obj (.text:__aeabi_cdcmple)
                  0000aea4    00000086                                   : fd_cmp_t2.asm.obj (.text:__aeabi_cdrcmple)
                  0000af2a    00000002     --HOLE-- [fill = 0]
                  0000af2c    00000084     grlib_demo.obj (.text:DrawTime)
                  0000afb0    00000084     sysbios.aem4f : BIOS.obj (.text:ti_sysbios_family_arm_m3_Hwi_postInit__I)
                  0000b034    00000082     drivers_tivaware.aem4f : UARTTiva.oem4f (.text:readIsrTextCallback)
                  0000b0b6    0000007e                            : I2CTiva.oem4f (.text:I2CTiva_transfer)
                  0000b134    0000007a     driverlib.lib : adc.obj (.text:ADCSequenceStepConfigure)
                  0000b1ae    0000007a     drivers_tivaware.aem4f : UARTTiva.oem4f (.text:readTaskCallback)
                  0000b228    0000007a     rtsv7M4_T_le_v4SPD16_eabi.lib : memset_t2.asm.obj (.text)
                  0000b2a2    00000002     --HOLE-- [fill = 0]
                  0000b2a4    00000078     sensors_api.obj (.text:getAcceleration)
                  0000b31c    00000074     motor_api.obj (.text:ADCTriggerFxn)
                  0000b390    00000074     sysbios.aem4f : BIOS.obj (.text:ti_sysbios_knl_Clock_start__E)
                  0000b404    00000070     opt3001.obj (.text:OPT3001Convert)
                  0000b474    00000070     grlib_demo.obj (.text:OnGraphsMain)
                  0000b4e4    00000004     empty_pem4f.oem4f (.text:ti_sysbios_knl_Clock_TimerProxy_getMaxTicks__E)
                  0000b4e8    00000070     sysbios.aem4f : BIOS.obj (.text:ti_sysbios_knl_Clock_workFunc__E)
                  0000b558    00000070                   : BIOS.obj (.text:ti_sysbios_knl_Task_exit__E)
                  0000b5c8    0000006e     rtsv7M4_T_le_v4SPD16_eabi.lib : _printfi.c.obj (.text:_mcpy)
                  0000b636    0000006e                                   : fd_tos_t2.asm.obj (.text)
                  0000b6a4    0000006e                                   : ll_div_t2.asm.obj (.text)
                  0000b712    00000002     --HOLE-- [fill = 0]
                  0000b714    0000006d     ti.targets.arm.rtsarm.aem4f : System.oem4f (.text:xdc_runtime_System_formatNum__I)
                  0000b781    00000003     --HOLE-- [fill = 0]
                  0000b784    0000006c     drivers_tivaware.aem4f : PWMTimerTiva.oem4f (.text:PWMTimerTiva_control)
                  0000b7f0    0000006c     rtsv7M4_T_le_v4SPD16_eabi.lib : asctime.c.obj (.text:asctime)
                  0000b85c    0000006c     empty_pem4f.oem4f (.text:ti_sysbios_family_arm_m3_Hwi_Object__create__S)
                  0000b8c8    0000006c     sysbios.aem4f : BIOS.obj (.text:ti_sysbios_knl_Swi_restoreHwi__E)
                  0000b934    0000006c     drivers_tivaware.aem4f : UARTTiva.oem4f (.text:writeData)
                  0000b9a0    0000006c     ti.targets.arm.rtsarm.aem4f : Error.oem4f (.text:xdc_runtime_Error_print__E)
                  0000ba0c    0000006c                                 : Memory.oem4f (.text:xdc_runtime_Memory_alloc__E)
                  0000ba78    0000006a     drivers_tivaware.aem4f : PWMTiva.oem4f (.text:PWMTiva_close)
                  0000bae2    00000002     --HOLE-- [fill = 0]
                  0000bae4    00000068     grlib_demo.obj (.text:DrawDayNight)
                  0000bb4c    00000068     grlib.lib : context.obj (.text:GrContextInit)
                  0000bbb4    00000068               : string.obj (.text:GrStringWidthGet)
                  0000bc1c    00000068     driverlib.lib : interrupt.obj (.text:IntEnable)
                  0000bc84    00000068     Kentec320x240x16_ssd2119_spi.obj (.text:Kentec320x240x16_SSD2119LineDrawH)
                  0000bcec    00000068     Kentec320x240x16_ssd2119_spi.obj (.text:Kentec320x240x16_SSD2119LineDrawV)
                  0000bd54    00000068     rtsv7M4_T_le_v4SPD16_eabi.lib : copy_decompress_lzss.c.obj (.text:decompress:lzss:__TI_decompress_lzss)
                  0000bdbc    00000066     grlib.lib : context.obj (.text:GrContextClipRegionSet)
                  0000be22    00000066               : rectangle.obj (.text:GrRectDraw)
                  0000be88    00000066     opt3001.obj (.text:OPT3001Read)
                  0000beee    00000066     ti.targets.arm.rtsarm.aem4f : Core-mem.oem4f (.text:xdc_runtime_Core_deleteObject__I)
                  0000bf54    00000064     drivers_tivaware.aem4f : GPIOTiva.oem4f (.text:GPIO_hwiIntFxn)
                  0000bfb8    00000064     opt3001.obj (.text:OPT3001Test)
                  0000c01c    00000064     grlib.lib : widget.obj (.text:WidgetMessageQueueProcess)
                  0000c080    00000064     rtsv7M4_T_le_v4SPD16_eabi.lib : s_frexp.c.obj (.text:frexp)
                  0000c0e4    00000064     empty.obj (.text:setupLightSensor)
                  0000c148    00000064     sysbios.aem4f : BIOS.obj (.text:ti_sysbios_family_arm_lm4_Timer_Module_startup__E)
                  0000c1ac    00000064     empty_pem4f.oem4f (.text:ti_sysbios_family_arm_m3_Hwi_create)
                  0000c210    00000064     sysbios.aem4f : BIOS.obj (.text:ti_sysbios_family_arm_m3_Hwi_dispatchC__I)
                  0000c274    00000064     empty_pem4f.oem4f (.text:ti_sysbios_hal_Hwi_create)
                  0000c2d8    00000062     drivers_tivaware.aem4f : I2CTiva.oem4f (.text:I2CTiva_primeTransfer)
                  0000c33a    00000002     --HOLE-- [fill = 0]
                  0000c33c    00000060     driverlib.lib : timer.obj (.text:TimerConfigure)
                  0000c39c    00000060     Kentec320x240x16_ssd2119_spi.obj (.text:WriteDataSPI)
                  0000c3fc    00000060     motor_api.obj (.text:statesFxn)
                  0000c45c    00000060     sensors_api.obj (.text:taskLight)
                  0000c4bc    00000004     empty_pem4f.oem4f (.text:ti_sysbios_knl_Clock_destruct)
                  0000c4c0    00000060     sysbios.aem4f : BIOS.obj (.text:ti_sysbios_knl_Task_schedule__I)
                  0000c520    0000005e     grlib.lib : widget.obj (.text:WidgetMessageSendPreOrder)
                  0000c57e    0000005e     drivers_tivaware.aem4f : UARTTiva.oem4f (.text:readIsrBinaryBlocking)
                  0000c5dc    0000005c     Kentec320x240x16_ssd2119_spi.obj (.text:WriteCommandSPI)
                  0000c638    0000005c     sensors_api.obj (.text:getLight)
                  0000c694    00000004     empty_pem4f.oem4f (.text:ti_sysbios_knl_Queue_destruct)
                  0000c698    0000005c     sysbios.aem4f : BIOS.obj (.text:ti_sysbios_knl_Swi_run__I)
                  0000c6f4    00000004     empty_pem4f.oem4f (.text:ti_sysbios_knl_Semaphore_destruct)
                  0000c6f8    0000005c     sysbios.aem4f : BIOS.obj (.text:ti_sysbios_knl_Swi_schedule__I)
                  0000c754    00000004     ti.targets.arm.rtsarm.aem4f : Error.oem4f (.text:xdc_runtime_Error_getSite__E)
                  0000c758    0000005c     sysbios.aem4f : BIOS.obj (.text:ti_sysbios_knl_Task_Module_startup__E)
                  0000c7b4    0000005c     empty_pem4f.oem4f (.text:ti_sysbios_knl_Task_create)
                  0000c810    0000005c     sysbios.aem4f : BIOS.obj (.text:ti_sysbios_knl_Task_startCore__E)
                  0000c86c    0000005b     ti.targets.arm.rtsarm.aem4f : Text.oem4f (.text:xdc_runtime_Text_putLab__E)
                  0000c8c7    00000001     --HOLE-- [fill = 0]
                  0000c8c8    0000005a     grlib.lib : string.obj (.text:FontWideGlyphDataGet)
                  0000c922    00000002     --HOLE-- [fill = 0]
                  0000c924    00000058     boot.aem4f : boot.oem4f (.text)
                  0000c97c    00000058     rtsv7M4_T_le_v4SPD16_eabi.lib : hostwrite.c.obj (.text:HOSTwrite)
                  0000c9d4    00000058     driverlib.lib : timer.obj (.text:TimerControlTrigger)
                  0000ca2c    00000058     empty_pem4f.oem4f (.text:ti_sysbios_family_arm_m3_Hwi_construct)
                  0000ca84    00000058     sysbios.aem4f : m3_Hwi_asm_switch.obj (.text:ti_sysbios_family_arm_m3_Hwi_initStacks__E)
                  0000cadc    00000056     driverlib.lib : gpio.obj (.text:GPIOIntTypeSet)
                  0000cb32    00000056     rtsv7M4_T_le_v4SPD16_eabi.lib : _printfi.c.obj (.text:_pconv_f)
                  0000cb88    00000054     EK_TM4C1294XL.obj (.text:EK_TM4C1294XL_initUART)
                  0000cbdc    00000054     rtsv7M4_T_le_v4SPD16_eabi.lib : _ltoa.c.obj (.text:__TI_ltoa)
                  0000cc30    00000054     drivers_tivaware.aem4f : UARTTiva.oem4f (.text:readIsrBinaryCallback)
                  0000cc84    00000054     ti.targets.arm.rtsarm.aem4f : Assert.oem4f (.text:xdc_runtime_Assert_raise__I)
                  0000ccd8    00000052     rtsv7M4_T_le_v4SPD16_eabi.lib : _printfi.c.obj (.text:_ecpy)
                  0000cd2a    00000002     --HOLE-- [fill = 0]
                  0000cd2c    00000050     motor_api.obj (.text:ADC0_Init)
                  0000cd7c    00000050     driverlib.lib : adc.obj (.text:ADCSequenceConfigure)
                  0000cdcc    00000050     drivers_tivaware.aem4f : GPIOTiva.oem4f (.text:GPIO_setCallback)
                  0000ce1c    00000050                            : GPIOTiva.oem4f (.text:GPIO_toggle)
                  0000ce6c    00000050                            : GPIOTiva.oem4f (.text:GPIO_write)
                  0000cebc    00000050     opt3001.obj (.text:OPT3001WriteI2C)
                  0000cf0c    00000050     drivers_tivaware.aem4f : UARTTiva.oem4f (.text:UARTTiva_writeCancel)
                  0000cf5c    00000050     Boot.aem4f : Boot_sysctl.oem4f (.text:_SysCtlFrequencyGet)
                  0000cfac    00000004     empty_pem4f.oem4f (.text:xdc_runtime_System_Module_GateProxy_enter__E)
                  0000cfb0    00000050     sysbios.aem4f : BIOS.obj (.text:ti_sysbios_family_arm_m3_Hwi_Module_startup__E)
                  0000d000    00000050     ti.targets.arm.rtsarm.aem4f : Startup.oem4f (.text:xdc_runtime_Startup_exec__E)
                  0000d050    00000050                                 : Text.oem4f (.text:xdc_runtime_Text_visitRope2__I)
                  0000d0a0    0000004c     driverlib.lib : i2c.obj (.text:I2CMasterInitExpClk)
                  0000d0ec    0000004c     grlib_demo.obj (.text:OnMainMenu)
                  0000d138    0000004c     grlib_demo.obj (.text:OnSettingsMain)
                  0000d184    0000004c     drivers_tivaware.aem4f : UARTTiva.oem4f (.text:UARTTiva_close)
                  0000d1d0    0000004c     grlib.lib : widget.obj (.text:WidgetRemove)
                  0000d21c    0000004c     rtsv7M4_T_le_v4SPD16_eabi.lib : atoi.c.obj (.text:atoi)
                  0000d268    0000004c                                   : cpy_tbl.c.obj (.text:copy_in)
                  0000d2b4    0000004c     grlib_demo.obj (.text:drawSettingValue)
                  0000d300    0000004c     motor_api.obj (.text:initUART)
                  0000d34c    0000004c     rtsv7M4_T_le_v4SPD16_eabi.lib : snprintf.c.obj (.text:snprintf)
                  0000d398    0000004c     sysbios.aem4f : BIOS.obj (.text:ti_sysbios_family_arm_lm4_Timer_setAvailMask__E)
                  0000d3e4    00000004     empty_pem4f.oem4f (.text:xdc_runtime_System_Module_GateProxy_leave__E)
                  0000d3e8    0000004c     sysbios.aem4f : BIOS.obj (.text:ti_sysbios_heaps_HeapMem_getStats__E)
                  0000d434    00000004     ti.targets.arm.rtsarm.aem4f : System.oem4f (.text:xdc_runtime_System_aprintf_va__F)
                  0000d438    0000004c     sysbios.aem4f : BIOS.obj (.text:ti_sysbios_knl_Swi_runLoop__I)
                  0000d484    00000004     ti.targets.arm.rtsarm.aem4f : System.oem4f (.text:xdc_runtime_System_printf_va__F)
                  0000d488    0000004c     sysbios.aem4f : BIOS.obj (.text:ti_sysbios_knl_Task_allBlockedFunction__I)
                  0000d4d4    0000004a     drivers_tivaware.aem4f : PWMTimerTiva.oem4f (.text:PWMTimerTiva_close)
                  0000d51e    0000004a     grlib.lib : string.obj (.text:UpdateContextCharMapping)
                  0000d568    00000048     driverlib.lib : gpio.obj (.text:GPIOPinConfigure)
                  0000d5b0    00000048     rtsv7M4_T_le_v4SPD16_eabi.lib : hosttime.c.obj (.text:HOSTtime)
                  0000d5f8    00000048     driverlib.lib : sysctl.obj (.text:_SysCtlFrequencyGet)
                  0000d640    00000048     bmi160.obj (.text:accelThreshold)
                  0000d688    00000048     rtsv7M4_T_le_v4SPD16_eabi.lib : fd_toi_t2.asm.obj (.text)
                  0000d6d0    00000048     sysbios.aem4f : BIOS.obj (.text:ti_sysbios_family_arm_m3_Hwi_disableInterrupt__E)
                  0000d718    00000048                   : BIOS.obj (.text:ti_sysbios_family_arm_m3_Hwi_enableInterrupt__E)
                  0000d760    00000048                   : BIOS.obj (.text:ti_sysbios_family_arm_m3_Hwi_excReserved__I)
                  0000d7a8    00000048     bmi160.obj (.text:writeI2C)
                  0000d7f0    00000046     grlib.lib : line.obj (.text:GrLineDrawH)
                  0000d836    00000046               : line.obj (.text:GrLineDrawV)
                  0000d87c    00000046     Kentec320x240x16_ssd2119_spi.obj (.text:Kentec320x240x16_SSD2119PixelDraw)
                  0000d8c2    00000046     drivers_tivaware.aem4f : RingBuf.oem4f (.text:RingBuf_put)
                  0000d908    00000046     driverlib.lib : uart.obj (.text:UARTConfigSetExpClk)
                  0000d94e    00000046     ti.targets.arm.rtsarm.aem4f : Core-params.oem4f (.text:xdc_runtime_Core_assignParams__I)
                  0000d994    00000044     rtsv7M4_T_le_v4SPD16_eabi.lib : fd_tou_t2.asm.obj (.text)
                  0000d9d8    00000044     sysbios.aem4f : BIOS.obj (.text:ti_sysbios_family_arm_lm4_Timer_isrStub__E)
                  0000da1c    00000004     --HOLE-- [fill = 0]
                  0000da20    00000044                   : BIOS.obj (.text:ti_sysbios_family_arm_m3_Hwi_getStackInfo__E)
                  0000da64    00000004     --HOLE-- [fill = 0]
                  0000da68    00000044                   : BIOS.obj (.text:ti_sysbios_knl_Swi_post__E)
                  0000daac    00000044     ti.targets.arm.rtsarm.aem4f : Error.oem4f (.text:xdc_runtime_Error_setX__E)
                  0000daf0    00000044                                 : SysMin.oem4f (.text:xdc_runtime_SysMin_flush__E)
                  0000db34    00000044                                 : Text.oem4f (.text:xdc_runtime_Text_xprintf__I)
                  0000db78    00000042     drivers_tivaware.aem4f : UARTTiva.oem4f (.text:UARTTiva_hwiIntFxn)
                  0000dbba    00000042                            : UARTTiva.oem4f (.text:UARTTiva_writePolling)
                  0000dbfc    00000040     opt3001.obj (.text:OPT3001ReadI2C)
                  0000dc3c    00000040     drivers_tivaware.aem4f : RingBuf.oem4f (.text:RingBuf_get)
                  0000dc7c    00000040                            : UARTTiva.oem4f (.text:UARTTiva_read)
                  0000dcbc    00000040     bmi160.obj (.text:readI2C)
                  0000dcfc    00000040     rtsv7M4_T_le_v4SPD16_eabi.lib : u_divt2.asm.obj (.text)
                  0000dd3c    00000040                                   : sprintf.c.obj (.text:sprintf)
                  0000dd7c    00000004     --HOLE-- [fill = 0]
                  0000dd80    00000040     sysbios.aem4f : BIOS.obj (.text:ti_sysbios_family_arm_lm4_Timer_startup__E)
                  0000ddc0    0000003e     rtsv7M4_T_le_v4SPD16_eabi.lib : _printfi.c.obj (.text:_fcpy)
                  0000ddfe    00000002     --HOLE-- [fill = 0]
                  0000de00    0000003c     EK_TM4C1294XL.obj (.text:EK_TM4C1294XL_initI2C)
                  0000de3c    0000003c     driverlib.lib : ssi.obj (.text:SSIConfigSetExpClk)
                  0000de78    0000003c     sysbios.aem4f : BIOS.obj (.text:ti_sysbios_family_arm_m3_Hwi_excSvCall__I)
                  0000deb4    00000004     --HOLE-- [fill = 0]
                  0000deb8    0000003c                   : BIOS.obj (.text:ti_sysbios_heaps_HeapMem_init__I)
                  0000def4    00000004     --HOLE-- [fill = 0]
                  0000def8    0000003c                   : BIOS.obj (.text:ti_sysbios_knl_Swi_restore__E)
                  0000df34    0000003a     grlib.lib : string.obj (.text:FontGlyphDataGet)
                  0000df6e    0000003a     drivers_tivaware.aem4f : I2CTiva.oem4f (.text:I2CTiva_completeTransfer)
                  0000dfa8    00000038                            : I2C.oem4f (.text:I2C_init)
                  0000dfe0    00000038                            : PWM.oem4f (.text:PWM_init)
                  0000e018    00000038     driverlib.lib : sysctl.obj (.text:SysCtlPeripheralReady)
                  0000e050    00000038     drivers_tivaware.aem4f : UART.oem4f (.text:UART_init)
                  0000e088    00000038     rtsv7M4_T_le_v4SPD16_eabi.lib : trgmsg.c.obj (.text:__TI_writemsg)
                  0000e0c0    00000038                                   : fs_tod_t2.asm.obj (.text)
                  0000e0f8    00000038     motor_api.obj (.text:startMotor)
                  0000e130    00000038     sysbios.aem4f : BIOS.obj (.text:ti_sysbios_family_arm_m3_Hwi_excNoIsr__I)
                  0000e168    00000038     empty_pem4f.oem4f (.text:ti_sysbios_knl_Clock_create)
                  0000e1a0    00000038     sysbios.aem4f : BIOS.obj (.text:ti_sysbios_knl_Task_processVitalTaskFlag__I)
                  0000e1d8    00000038     ti.targets.arm.rtsarm.aem4f : SysMin.oem4f (.text:xdc_runtime_SysMin_putch__E)
                  0000e210    00000038                                 : System.oem4f (.text:xdc_runtime_System_atexit__E)
                  0000e248    00000036     grlib.lib : line.obj (.text:GrClipCodeGet)
                  0000e27e    00000036     drivers_tivaware.aem4f : I2CTiva.oem4f (.text:I2CTiva_close)
                  0000e2b4    00000036                            : UARTTiva.oem4f (.text:UARTTiva_readCancel)
                  0000e2ea    00000002     --HOLE-- [fill = 0]
                  0000e2ec    00000034     driverlib.lib : sysctl.obj (.text:SysCtlPeripheralEnable)
                  0000e320    00000034     rtsv7M4_T_le_v4SPD16_eabi.lib : trgmsg.c.obj (.text:__TI_readmsg)
                  0000e354    00000004     --HOLE-- [fill = 0]
                  0000e358    00000034     sysbios.aem4f : BIOS.obj (.text:ti_sysbios_family_arm_m3_Hwi_Instance_finalize__E)
                  0000e38c    00000004     --HOLE-- [fill = 0]
                  0000e390    00000034                   : BIOS.obj (.text:ti_sysbios_family_arm_m3_Hwi_excNmi__I)
                  0000e3c4    00000004     --HOLE-- [fill = 0]
                  0000e3c8    00000034                   : BIOS.obj (.text:ti_sysbios_hal_Hwi_checkStack)
                  0000e3fc    00000034     empty_pem4f.oem4f (.text:ti_sysbios_knl_Clock_construct)
                  0000e430    00000034     ti.targets.arm.rtsarm.aem4f : Core-label.oem4f (.text:xdc_runtime_Core_assignLabel__I)
                  0000e464    00000033                                 : Text.oem4f (.text:xdc_runtime_Text_printVisFxn__I)
                  0000e497    00000001     --HOLE-- [fill = 0]
                  0000e498    00000032     sysbios.aem4f : BIOS.obj (.text:ti_sysbios_hal_Hwi_initStack)
                  0000e4ca    00000002     --HOLE-- [fill = 0]
                  0000e4cc    00000030     drivers_tivaware.aem4f : GPIOTiva.oem4f (.text:GPIO_enableInt)
                  0000e4fc    00000030                            : GPIOTiva.oem4f (.text:GPIO_read)
                  0000e52c    00000030                            : I2C.oem4f (.text:I2C_open)
                  0000e55c    00000030     grlib_demo.obj (.text:OnGraphAcceleration)
                  0000e58c    00000030     drivers_tivaware.aem4f : PWMTiva.oem4f (.text:PWMTiva_init)
                  0000e5bc    00000030                            : PWM.oem4f (.text:PWM_open)
                  0000e5ec    00000030                            : UART.oem4f (.text:UART_open)
                  0000e61c    00000030     rtsv7M4_T_le_v4SPD16_eabi.lib : snprintf.c.obj (.text:_outs)
                  0000e64c    00000030     motor_api.obj (.text:readABC)
                  0000e67c    00000030     empty_pem4f.oem4f (.text:ti_sysbios_BIOS_atExitFunc__I)
                  0000e6ac    00000004     --HOLE-- [fill = 0]
                  0000e6b0    00000030     sysbios.aem4f : BIOS.obj (.text:ti_sysbios_family_arm_lm4_Timer_stop__E)
                  0000e6e0    00000030                   : BIOS.obj (.text:ti_sysbios_family_arm_m3_TaskSupport_start__E)
                  0000e710    00000030     empty_pem4f.oem4f (.text:ti_sysbios_gates_GateHwi_Object__create__S)
                  0000e740    00000030     empty_pem4f.oem4f (.text:ti_sysbios_gates_GateHwi_create)
                  0000e770    00000030     empty_pem4f.oem4f (.text:ti_sysbios_gates_GateMutex_Object__create__S)
                  0000e7a0    00000030     empty_pem4f.oem4f (.text:ti_sysbios_heaps_HeapMem_Object__create__S)
                  0000e7d0    00000030     sysbios.aem4f : BIOS.obj (.text:ti_sysbios_knl_Event_pendTimeout__I)
                  0000e800    00000030     empty_pem4f.oem4f (.text:ti_sysbios_knl_Semaphore_construct)
                  0000e830    00000030     sysbios.aem4f : BIOS.obj (.text:ti_sysbios_knl_Semaphore_pendTimeout__I)
                  0000e860    00000030                   : BIOS.obj (.text:ti_sysbios_knl_Task_unblockI__E)
                  0000e890    00000030     ti.targets.arm.rtsarm.aem4f : SysMin.oem4f (.text:xdc_runtime_SysMin_abort__E)
                  0000e8c0    00000030                                 : System.oem4f (.text:xdc_runtime_System_processAtExit__E)
                  0000e8f0    0000002e     grlib.lib : string.obj (.text:GrStringNextCharGet)
                  0000e91e    0000002e     opt3001.obj (.text:OPT3001Enable)
                  0000e94c    0000002e     rtsv7M4_T_le_v4SPD16_eabi.lib : i_tofd_t2.asm.obj (.text)
                  0000e97a    0000002c     grlib.lib : string.obj (.text:GrFontBaselineGet)
                  0000e9a6    0000002c               : string.obj (.text:GrFontHeightGet)
                  0000e9d2    0000002c               : pushbutton.obj (.text:RectangularButtonMsgProc)
                  0000e9fe    0000002c               : widget.obj (.text:WidgetIsInTree)
                  0000ea2a    00000002     --HOLE-- [fill = 0]
                  0000ea2c    0000002c     empty_pem4f.oem4f (.text:ti_sysbios_knl_Clock_doTick__I)
                  0000ea58    0000002c     empty_pem4f.oem4f (.text:ti_sysbios_knl_Event_construct)
                  0000ea84    0000002c     empty_pem4f.oem4f (.text:ti_sysbios_knl_Queue_construct)
                  0000eab0    0000002c     sysbios.aem4f : BIOS.obj (.text:ti_sysbios_knl_Task_restore__E)
                  0000eadc    0000002c     ti.targets.arm.rtsarm.aem4f : Text.oem4f (.text:xdc_runtime_Text_cordText__E)
                  0000eb08    0000002a     driverlib.lib : gpio.obj (.text:GPIODirModeSet)
                  0000eb32    0000002a     ti.targets.arm.rtsarm.aem4f : System.oem4f (.text:xdc_runtime_System_putchar__I)
                  0000eb5c    00000028     Kentec320x240x16_ssd2119_spi.obj (.text:Kentec320x240x16_SSD2119ColorTranslate)
                  0000eb84    00000028     grlib_demo.obj (.text:OnGraphLight)
                  0000ebac    00000028     grlib_demo.obj (.text:OnGraphSpeed)
                  0000ebd4    00000004     --HOLE-- [fill = 0]
                  0000ebd8    00000028     sysbios.aem4f : BIOS.obj (.text:ti_sysbios_hal_Hwi_Instance_init__E)
                  0000ec00    00000028                   : BIOS.obj (.text:ti_sysbios_knl_Swi_Module_startup__E)
                  0000ec28    00000026     grlib.lib : string.obj (.text:GrFontInfoGet)
                  0000ec4e    00000026     sysbios.aem4f : m3_Hwi_asm.obj (.text:ti_sysbios_family_arm_m3_Hwi_pendSV__I)
                  0000ec74    00000026     ti.targets.arm.rtsarm.aem4f : System.oem4f (.text:xdc_runtime_System_avprintf__E)
                  0000ec9a    00000002     --HOLE-- [fill = 0]
                  0000ec9c    00000024     grlib_demo.obj (.text:OnGraphPower)
                  0000ecc0    00000024     sensors_api.obj (.text:setAccelThreshold)
                  0000ece4    00000024     empty_pem4f.oem4f (.text:ti_sysbios_BIOS_errorRaiseHook__I)
                  0000ed08    00000024     empty_pem4f.oem4f (.text:ti_sysbios_BIOS_registerRTSLock__I)
                  0000ed2c    00000024     empty_pem4f.oem4f (.text:ti_sysbios_BIOS_removeRTSLock__I)
                  0000ed50    00000024     empty_pem4f.oem4f (.text:ti_sysbios_BIOS_startFunc__I)
                  0000ed74    00000024     empty_pem4f.oem4f (.text:ti_sysbios_gates_GateMutex_Object__delete__S)
                  0000ed98    00000024     sysbios.aem4f : BIOS.obj (.text:ti_sysbios_knl_Clock_Module_startup__E)
                  0000edbc    00000004     --HOLE-- [fill = 0]
                  0000edc0    00000024                   : BIOS.obj (.text:ti_sysbios_knl_Task_restoreHwi__E)
                  0000ede4    00000024     ti.targets.arm.rtsarm.aem4f : System.oem4f (.text:xdc_runtime_System_vprintf__E)
                  0000ee08    00000022     grlib.lib : string.obj (.text:GrFontGlyphDataGet)
                  0000ee2a    00000022     driverlib.lib : pwm.obj (.text:PWMGenConfigure)
                  0000ee4c    00000022     drivers_tivaware.aem4f : PWMTiva.oem4f (.text:PWMTiva_getPeriodCounts)
                  0000ee6e    00000002     --HOLE-- [fill = 0]
                  0000ee70    00000022     sysbios.aem4f : BIOS.obj (.text:ti_sysbios_family_arm_lm4_Timer_write__I)
                  0000ee92    00000022     empty_pem4f.oem4f (.text:xdc_runtime_SysMin_output__I)
                  0000eeb4    00000020     motor_api.obj (.text:ADCFxn)
                  0000eed4    00000020     drivers_tivaware.aem4f : GPIOTiva.oem4f (.text:GPIO_clearInt)
                  0000eef4    00000020     driverlib.lib : uart.obj (.text:UARTDisable)
                  0000ef14    00000020     Boot.aem4f : Boot_sysctl.oem4f (.text:_SysCtlMemTimingGet)
                  0000ef34    00000020     driverlib.lib : sysctl.obj (.text:_SysCtlMemTimingGet)
                  0000ef54    00000020     rtsv7M4_T_le_v4SPD16_eabi.lib : u_tofd_t2.asm.obj (.text)
                  0000ef74    00000020     motor_api.obj (.text:setSpeed)
                  0000ef94    00000020     empty_pem4f.oem4f (.text:ti_sysbios_BIOS_rtsLock__I)
                  0000efb4    00000020     empty_pem4f.oem4f (.text:ti_sysbios_family_arm_m3_Hwi_Object__delete__S)
                  0000efd4    00000020     sysbios.aem4f : m3_Hwi_asm.obj (.text:ti_sysbios_family_arm_m3_Hwi_excHandlerAsm__I)
                  0000eff4    00000004     --HOLE-- [fill = 0]
                  0000eff8    00000020                   : BIOS.obj (.text:ti_sysbios_family_arm_m3_Hwi_excHandler__I)
                  0000f018    00000020     empty_pem4f.oem4f (.text:ti_sysbios_gates_GateHwi_Object__delete__S)
                  0000f038    00000020     empty_pem4f.oem4f (.text:ti_sysbios_heaps_HeapMem_Object__delete__S)
                  0000f058    00000020     empty_pem4f.oem4f (.text:ti_sysbios_knl_Clock_Object__destruct__S)
                  0000f078    00000020     sysbios.aem4f : BIOS.obj (.text:ti_sysbios_knl_Idle_run__E)
                  0000f098    00000020     empty_pem4f.oem4f (.text:ti_sysbios_knl_Semaphore_Object__destruct__S)
                  0000f0b8    00000020     ti.targets.arm.rtsarm.aem4f : Registry.oem4f (.text:xdc_runtime_Registry_findById__E)
                  0000f0d8    00000020                                 : SysMin.oem4f (.text:xdc_runtime_SysMin_Module_startup__E)
                  0000f0f8    0000001e     driverlib.lib : adc.obj (.text:ADCSequenceDataGet)
                  0000f116    0000001e     grlib.lib : string.obj (.text:GrFontCodepageGet)
                  0000f134    0000001e     driverlib.lib : pwm.obj (.text:PWMPulseWidthSet)
                  0000f152    0000001e     drivers_tivaware.aem4f : PWMTiva.oem4f (.text:PWMTiva_getPeriodMicroSecs)
                  0000f170    0000001e     grlib.lib : widget.obj (.text:WidgetAdd)
                  0000f18e    0000001e     sysbios.aem4f : m3_Hwi_asm_switch.obj (.text:ti_sysbios_family_xxx_Hwi_switchAndRunFunc)
                  0000f1ac    0000001c     grlib.lib : widget.obj (.text:WidgetPointerMessage)
                  0000f1c8    0000001c     drivers_tivaware.aem4f : GPIOTiva.oem4f (.text:getGpioIntIndex)
                  0000f1e4    0000001c     empty.obj (.text:heartBeatFxn)
                  0000f200    0000001c     rtsv7M4_T_le_v4SPD16_eabi.lib : memccpy.c.obj (.text:memccpy)
                  0000f21c    0000001c     empty_pem4f.oem4f (.text:ti_sysbios_family_arm_m3_Hwi_Object__destruct__S)
                  0000f238    0000001c     sysbios.aem4f : BIOS.obj (.text:ti_sysbios_gates_GateMutex_Instance_init__E)
                  0000f254    0000001c     empty_pem4f.oem4f (.text:ti_sysbios_hal_Hwi_HwiProxy_create)
                  0000f270    0000001c     empty_pem4f.oem4f (.text:ti_sysbios_knl_Queue_Object__destruct__S)
                  0000f28c    00000004     --HOLE-- [fill = 0]
                  0000f290    0000001c     sysbios.aem4f : BIOS.obj (.text:ti_sysbios_knl_Queue_put__E)
                  0000f2ac    00000004     --HOLE-- [fill = 0]
                  0000f2b0    0000001c                   : BIOS.obj (.text:ti_sysbios_knl_Task_enter__I)
                  0000f2cc    0000001c     ti.targets.arm.rtsarm.aem4f : Error.oem4f (.text:xdc_runtime_Error_raiseX__E)
                  0000f2e8    0000001c                                 : Memory.oem4f (.text:xdc_runtime_Memory_valloc__E)
                  0000f304    0000001c                                 : SysMin.oem4f (.text:xdc_runtime_SysMin_exit__E)
                  0000f320    0000001c                                 : System.oem4f (.text:xdc_runtime_System_abort__E)
                  0000f33c    0000001a     rtsv7M4_T_le_v4SPD16_eabi.lib : s_copysign.c.obj (.text:copysign)
                  0000f356    0000001a     empty_pem4f.oem4f (.text:ti_sysbios_family_arm_m3_Hwi_Handle__label__S)
                  0000f370    0000001a     empty_pem4f.oem4f (.text:ti_sysbios_gates_GateHwi_Handle__label__S)
                  0000f38a    0000001a     empty_pem4f.oem4f (.text:ti_sysbios_gates_GateMutex_Handle__label__S)
                  0000f3a4    0000001a     empty_pem4f.oem4f (.text:ti_sysbios_heaps_HeapMem_Handle__label__S)
                  0000f3be    0000001a     empty_pem4f.oem4f (.text:ti_sysbios_knl_Swi_Handle__label__S)
                  0000f3d8    0000001a     empty_pem4f.oem4f (.text:ti_sysbios_knl_Task_Handle__label__S)
                  0000f3f2    0000001a     empty_pem4f.oem4f (.text:xdc_runtime_System_aprintf__E)
                  0000f40c    0000001a     empty_pem4f.oem4f (.text:xdc_runtime_System_printf__E)
                  0000f426    00000018     driverlib.lib : gpio.obj (.text:GPIOPinTypeGPIOOutput)
                  0000f43e    00000018                   : timer.obj (.text:TimerControlLevel)
                  0000f456    00000002     --HOLE-- [fill = 0]
                  0000f458    00000018                   : timer.obj (.text:TimerDisable)
                  0000f470    00000018     drivers_tivaware.aem4f : UART.oem4f (.text:UART_Params_init)
                  0000f488    00000018     rtsv7M4_T_le_v4SPD16_eabi.lib : args_main.c.obj (.text:_args_main)
                  0000f4a0    00000018                                   : snprintf.c.obj (.text:_outc)
                  0000f4b8    00000018                                   : sprintf.c.obj (.text:_outs)
                  0000f4d0    00000018     sensors_api.obj (.text:accelEStopIntterupt)
                  0000f4e8    00000018     empty_pem4f.oem4f (.text:ti_sysbios_BIOS_rtsUnlock__I)
                  0000f500    00000018     empty_pem4f.oem4f (.text:ti_sysbios_family_arm_lm4_Timer_Module__startupDone__F)
                  0000f518    00000018     empty_pem4f.oem4f (.text:ti_sysbios_family_arm_m3_Hwi_Module__startupDone__F)
                  0000f530    00000018     sysbios.aem4f : m3_TaskSupport_asm.obj (.text:ti_sysbios_family_arm_m3_TaskSupport_swap__E)
                  0000f548    00000018                   : BIOS.obj (.text:ti_sysbios_gates_GateMutex_leave__E)
                  0000f560    00000018                   : BIOS.obj (.text:ti_sysbios_knl_Task_sleepTimeout__I)
                  0000f578    00000018     ti.targets.arm.rtsarm.aem4f : Error.oem4f (.text:xdc_runtime_Error_check__E)
                  0000f590    00000018                                 : System.oem4f (.text:xdc_runtime_System_exit__E)
                  0000f5a8    00000018                                 : Text.oem4f (.text:xdc_runtime_Text_ropeText__E)
                  0000f5c0    00000016     grlib.lib : string.obj (.text:GrStringDraw)
                  0000f5d6    00000016     driverlib.lib : i2c.obj (.text:I2CMasterErr)
                  0000f5ec    00000016     rtsv7M4_T_le_v4SPD16_eabi.lib : strchr.c.obj (.text:strchr)
                  0000f602    00000016     empty_pem4f.oem4f (.text:ti_sysbios_BIOS_exitFunc__I)
                  0000f618    00000016     motor_api.obj (.text:ti_sysbios_gates_GateHwi_Params_init)
                  0000f62e    00000016     motor_api.obj (.text:ti_sysbios_hal_Hwi_Params_init)
                  0000f644    00000016     empty.obj (.text:ti_sysbios_knl_Clock_Params_init)
                  0000f65a    00000016     motor_api.obj (.text:ti_sysbios_knl_Clock_Params_init)
                  0000f670    00000016     sensors_api.obj (.text:ti_sysbios_knl_Clock_Params_init)
                  0000f686    00000016     motor_api.obj (.text:ti_sysbios_knl_Semaphore_Params_init)
                  0000f69c    00000016     sensors_api.obj (.text:ti_sysbios_knl_Semaphore_Params_init)
                  0000f6b2    00000016     empty.obj (.text:ti_sysbios_knl_Task_Params_init)
                  0000f6c8    00000016     sensors_api.obj (.text:ti_sysbios_knl_Task_Params_init)
                  0000f6de    00000014     grlib.lib : canvas.obj (.text:CanvasMsgProc)
                  0000f6f2    00000002     --HOLE-- [fill = 0]
                  0000f6f4    00000014     Kentec320x240x16_ssd2119_spi.obj (.text:LED_OFF)
                  0000f708    00000014     Kentec320x240x16_ssd2119_spi.obj (.text:LED_ON)
                  0000f71c    00000014     grlib_demo.obj (.text:OnSettingAcceleration)
                  0000f730    00000014     grlib_demo.obj (.text:OnSettingCurrent)
                  0000f744    00000014     grlib_demo.obj (.text:OnSettingSpeed)
                  0000f758    00000014     driverlib.lib : pwm.obj (.text:PWMClockSet)
                  0000f76c    00000014                   : sysctl.obj (.text:SysCtlPWMClockSet)
                  0000f780    00000014     touch.obj (.text:TouchScreenCallbackSet)
                  0000f794    00000014     driverlib.lib : uart.obj (.text:UARTEnable)
                  0000f7a8    00000014     grlib.lib : widget.obj (.text:WidgetMutexGet)
                  0000f7bc    00000014     motor_api.obj (.text:getSpeed)
                  0000f7d0    00000014     rtsv7M4_T_le_v4SPD16_eabi.lib : strcpy.c.obj (.text:strcpy)
                  0000f7e4    00000014                                   : strlen.c.obj (.text:strlen)
                  0000f7f8    00000014     empty_pem4f.oem4f (.text:ti_sysbios_family_arm_m3_Hwi_Object__get__S)
                  0000f80c    00000004     --HOLE-- [fill = 0]
                  0000f810    00000014     sysbios.aem4f : BIOS.obj (.text:ti_sysbios_family_arm_m3_Hwi_switchFromBootStack__E)
                  0000f824    00000014     empty_pem4f.oem4f (.text:ti_sysbios_heaps_HeapMem_Object__get__S)
                  0000f838    00000014     sysbios.aem4f : BIOS.obj (.text:ti_sysbios_knl_Event_Instance_init__E)
                  0000f84c    00000014     empty_pem4f.oem4f (.text:ti_sysbios_knl_Swi_Object__get__S)
                  0000f860    00000012     driverlib.lib : gpio.obj (.text:GPIOPinTypeADC)
                  0000f872    00000012                   : gpio.obj (.text:GPIOPinTypeEthernetLED)
                  0000f884    00000012                   : gpio.obj (.text:GPIOPinTypeGPIOInput)
                  0000f896    00000012                   : gpio.obj (.text:GPIOPinTypeI2C)
                  0000f8a8    00000012                   : gpio.obj (.text:GPIOPinTypeI2CSCL)
                  0000f8ba    00000012                   : gpio.obj (.text:GPIOPinTypePWM)
                  0000f8cc    00000012                   : gpio.obj (.text:GPIOPinTypeSSI)
                  0000f8de    00000012                   : gpio.obj (.text:GPIOPinTypeTimer)
                  0000f8f0    00000012                   : gpio.obj (.text:GPIOPinTypeUART)
                  0000f902    00000012                   : gpio.obj (.text:GPIOPinTypeUSBAnalog)
                  0000f914    00000012                   : gpio.obj (.text:GPIOPinTypeUSBDigital)
                  0000f926    00000012                   : pwm.obj (.text:PWMGenPeriodGet)
                  0000f938    00000012                   : pwm.obj (.text:PWMOutputInvert)
                  0000f94a    00000012                   : pwm.obj (.text:PWMOutputState)
                  0000f95c    00000012     drivers_tivaware.aem4f : RingBuf.oem4f (.text:RingBuf_construct)
                  0000f96e    00000012     driverlib.lib : ssi.obj (.text:SSIDataGetNonBlocking)
                  0000f980    00000012                   : timer.obj (.text:TimerLoadSet)
                  0000f992    00000012                   : timer.obj (.text:TimerMatchSet)
                  0000f9a4    00000012                   : timer.obj (.text:TimerPrescaleMatchSet)
                  0000f9b6    00000012                   : timer.obj (.text:TimerPrescaleSet)
                  0000f9c8    00000012     sysbios.aem4f : BIOS.obj (.text:ti_sysbios_hal_Hwi_Module_startup__E)
                  0000f9da    00000012     rtsv7M4_T_le_v4SPD16_eabi.lib : wcslen.c.obj (.text:wcslen)
                  0000f9ec    00000012     empty_pem4f.oem4f (.text:xdc_runtime_Startup_exec__I)
                  0000f9fe    00000002     --HOLE-- [fill = 0]
                  0000fa00    00000010     empty_pem4f.oem4f (.text:.bootCodeSection:ti_catalog_arm_cortexm4_tiva_ce_Boot_init__I)
                  0000fa10    00000010     driverlib.lib : adc.obj (.text:ADCIntEnable)
                  0000fa20    00000010     drivers_tivaware.aem4f : I2C.oem4f (.text:I2C_Params_init)
                  0000fa30    00000010     driverlib.lib : pwm.obj (.text:PWMGenPeriodSet)
                  0000fa40    00000010     drivers_tivaware.aem4f : PWM.oem4f (.text:PWM_Params_init)
                  0000fa50    00000010     empty.obj (.text:incrementTime)
                  0000fa60    00000010     drivers_tivaware.aem4f : UARTTiva.oem4f (.text:readBlockingTimeout)
                  0000fa70    00000010     empty.obj (.text:sensorsFxn)
                  0000fa80    00000010     sensors_api.obj (.text:swiAcceleration)
                  0000fa90    00000010     sensors_api.obj (.text:swiLight)
                  0000faa0    00000010     sysbios.aem4f : BIOS.obj (.text:ti_sysbios_BIOS_getCpuFreq__E)
                  0000fab0    00000010                   : BIOS.obj (.text:ti_sysbios_BIOS_setThreadType__E)
                  0000fac0    00000010                   : BIOS.obj (.text:ti_sysbios_BIOS_start__E)
                  0000fad0    00000010                   : m3_TaskSupport_asm.obj (.text:ti_sysbios_family_arm_m3_TaskSupport_glue)
                  0000fae0    00000010                   : BIOS.obj (.text:ti_sysbios_gates_GateMutex_Instance_finalize__E)
                  0000faf0    00000010     empty_pem4f.oem4f (.text:ti_sysbios_hal_Hwi_HwiProxy_Object__create__S)
                  0000fb00    00000010     sysbios.aem4f : BIOS.obj (.text:ti_sysbios_knl_Semaphore_Instance_finalize__E)
                  0000fb10    00000010                   : BIOS.obj (.text:ti_sysbios_knl_Swi_disable__E)
                  0000fb20    00000010     empty_pem4f.oem4f (.text:ti_sysbios_knl_Task_Object__get__S)
                  0000fb30    00000010     sysbios.aem4f : BIOS.obj (.text:ti_sysbios_knl_Task_disable__E)
                  0000fb40    00000010     ti.targets.arm.rtsarm.aem4f : Gate.oem4f (.text:xdc_runtime_Gate_leaveSystem__E)
                  0000fb50    00000010                                 : Memory.oem4f (.text:xdc_runtime_Memory_free__E)
                  0000fb60    00000010                                 : SysMin.oem4f (.text:xdc_runtime_SysMin_ready__E)
                  0000fb70    00000010                                 : System.oem4f (.text:xdc_runtime_System_vsnprintf__E)
                  0000fb80    00000010     empty_pem4f.oem4f (.text:xdc_runtime_Text_visitRope__I)
                  0000fb90    0000000e     driverlib.lib : adc.obj (.text:ADCSequenceEnable)
                  0000fb9e    0000000e                   : gpio.obj (.text:GPIOIntStatus)
                  0000fbac    0000000e     grlib.lib : image.obj (.text:GrImageDraw)
                  0000fbba    0000000e     driverlib.lib : timer.obj (.text:TimerEnable)
                  0000fbc8    0000000e                   : uart.obj (.text:UARTCharGetNonBlocking)
                  0000fbd6    0000000e                   : uart.obj (.text:UARTCharPutNonBlocking)
                  0000fbe4    0000000e     rtsv7M4_T_le_v4SPD16_eabi.lib : time.c.obj (.text:__time32)
                  0000fbf2    0000000e                                   : copy_decompress_none.c.obj (.text:decompress:none:__TI_decompress_none)
                  0000fc00    0000000e     sysbios.aem4f : BIOS.obj (.text:ti_sysbios_knl_Idle_loop__E)
                  0000fc0e    00000002     --HOLE-- [fill = 0]
                  0000fc10    0000000e                   : BIOS.obj (.text:ti_sysbios_knl_Queue_empty__E)
                  0000fc1e    0000000c     driverlib.lib : gpio.obj (.text:GPIOIntEnable)
                  0000fc2a    0000000c                   : pwm.obj (.text:PWMGenDisable)
                  0000fc36    0000000c                   : pwm.obj (.text:PWMGenEnable)
                  0000fc42    0000000c     drivers_tivaware.aem4f : RingBuf.oem4f (.text:RingBuf_peek)
                  0000fc4e    0000000c     driverlib.lib : uart.obj (.text:UARTFlowControlSet)
                  0000fc5a    0000000c     drivers_tivaware.aem4f : UARTTiva.oem4f (.text:UARTTiva_init)
                  0000fc66    00000002     --HOLE-- [fill = 0]
                  0000fc68    0000000c     rtsv7M4_T_le_v4SPD16_eabi.lib : _lock.c.obj (.text:_register_lock)
                  0000fc74    0000000c                                   : _lock.c.obj (.text:_register_unlock)
                  0000fc80    0000000c                                   : copy_zero_init.c.obj (.text:decompress:ZI:__TI_zero_init)
                  0000fc8c    0000000c     motor_api.obj (.text:getState)
                  0000fc98    0000000c     motor_api.obj (.text:set_estop)
                  0000fca4    00000004     --HOLE-- [fill = 0]
                  0000fca8    0000000c     sysbios.aem4f : BIOS.obj (.text:ti_sysbios_family_arm_lm4_Timer_getAvailMask__E)
                  0000fcb4    00000004     --HOLE-- [fill = 0]
                  0000fcb8    0000000c                   : BIOS.obj (.text:ti_sysbios_family_arm_lm4_Timer_getMaxTicks__E)
                  0000fcc4    0000000c     empty_pem4f.oem4f (.text:ti_sysbios_family_arm_m3_Hwi_Params__init__S)
                  0000fcd0    0000000c     sysbios.aem4f : BIOS.obj (.text:ti_sysbios_family_arm_m3_Hwi_disableFxn__E)
                  0000fcdc    00000004     --HOLE-- [fill = 0]
                  0000fce0    0000000c                   : BIOS.obj (.text:ti_sysbios_family_arm_m3_TaskSupport_checkStack__E)
                  0000fcec    00000004     --HOLE-- [fill = 0]
                  0000fcf0    0000000c                   : BIOS.obj (.text:ti_sysbios_family_arm_m3_TaskSupport_getStackAlignment__E)
                  0000fcfc    0000000c     empty_pem4f.oem4f (.text:ti_sysbios_gates_GateHwi_Params__init__S)
                  0000fd08    0000000c     sysbios.aem4f : BIOS.obj (.text:ti_sysbios_gates_GateHwi_enter__E)
                  0000fd14    0000000c     empty_pem4f.oem4f (.text:ti_sysbios_hal_Hwi_Params__init__S)
                  0000fd20    0000000c     empty_pem4f.oem4f (.text:ti_sysbios_knl_Clock_Params__init__S)
                  0000fd2c    00000004     --HOLE-- [fill = 0]
                  0000fd30    0000000c     sysbios.aem4f : BIOS.obj (.text:ti_sysbios_knl_Clock_getTicks__E)
                  0000fd3c    0000000c     motor_api.obj (.text:ti_sysbios_knl_Event_handle)
                  0000fd48    0000000c     empty_pem4f.oem4f (.text:ti_sysbios_knl_Queue_Object__get__S)
                  0000fd54    0000000c     empty_pem4f.oem4f (.text:ti_sysbios_knl_Semaphore_Params__init__S)
                  0000fd60    0000000c     motor_api.obj (.text:ti_sysbios_knl_Semaphore_handle)
                  0000fd6c    0000000c     sensors_api.obj (.text:ti_sysbios_knl_Semaphore_handle)
                  0000fd78    0000000c     empty_pem4f.oem4f (.text:ti_sysbios_knl_Task_Params__init__S)
                  0000fd84    0000000c     empty.obj (.text:updateGraphUI)
                  0000fd90    0000000c     ti.targets.arm.rtsarm.aem4f : Error.oem4f (.text:xdc_runtime_Error_init__E)
                  0000fd9c    0000000c                                 : Gate.oem4f (.text:xdc_runtime_Gate_enterSystem__E)
                  0000fda8    0000000c                                 : Memory.oem4f (.text:xdc_runtime_Memory_calloc__E)
                  0000fdb4    0000000c                                 : Memory.oem4f (.text:xdc_runtime_Memory_getMaxDefaultTypeAlign__E)
                  0000fdc0    0000000a     driverlib.lib : adc.obj (.text:ADCIntClear)
                  0000fdca    0000000a                   : i2c.obj (.text:I2CMasterDisable)
                  0000fdd4    0000000a                   : i2c.obj (.text:I2CMasterEnable)
                  0000fdde    0000000a     drivers_tivaware.aem4f : I2CTiva.oem4f (.text:I2CTiva_init)
                  0000fde8    0000000a                            : I2C.oem4f (.text:I2C_transfer)
                  0000fdf2    0000000a     Kentec320x240x16_ssd2119_spi.obj (.text:Kentec320x240x16_SSD2119Flush)
                  0000fdfc    0000000a     drivers_tivaware.aem4f : PWMTimerTiva.oem4f (.text:PWMTimerTiva_getPeriodCounts)
                  0000fe06    0000000a                            : PWM.oem4f (.text:PWM_setDuty)
                  0000fe10    0000000a     driverlib.lib : ssi.obj (.text:SSIDataPut)
                  0000fe1a    0000000a                   : ssi.obj (.text:SSIEnable)
                  0000fe24    0000000a                   : uart.obj (.text:UARTCharGet)
                  0000fe2e    0000000a                   : uart.obj (.text:UARTCharPut)
                  0000fe38    0000000a                   : uart.obj (.text:UARTIntDisable)
                  0000fe42    0000000a                   : uart.obj (.text:UARTIntStatus)
                  0000fe4c    0000000a     rtsv7M4_T_le_v4SPD16_eabi.lib : sprintf.c.obj (.text:_outc)
                  0000fe56    00000002     --HOLE-- [fill = 0]
                  0000fe58    0000000a     sysbios.aem4f : BIOS.obj (.text:ti_sysbios_hal_Hwi_Instance_finalize__E)
                  0000fe62    0000000a     empty_pem4f.oem4f (.text:xdc_runtime_IHeap_alloc)
                  0000fe6c    0000000a     empty_pem4f.oem4f (.text:xdc_runtime_IHeap_free)
                  0000fe76    00000008     EK_TM4C1294XL.obj (.text:EK_TM4C1294XL_initGPIO)
                  0000fe7e    00000008     grlib.lib : charmap.obj (.text:GrMapISO8859_1_Unicode)
                  0000fe86    00000008     driverlib.lib : i2c.obj (.text:I2CMasterIntClear)
                  0000fe8e    00000008                   : i2c.obj (.text:I2CMasterSlaveAddrSet)
                  0000fe96    00000008     drivers_tivaware.aem4f : I2CTiva.oem4f (.text:I2CTiva_blockingCallback)
                  0000fe9e    00000008                            : PWMTimerTiva.oem4f (.text:PWMTimerTiva_init)
                  0000fea6    00000008     driverlib.lib : ssi.obj (.text:SSIBusy)
                  0000feae    00000008                   : uart.obj (.text:UARTIntEnable)
                  0000feb6    00000008                   : uart.obj (.text:UARTRxErrorGet)
                  0000febe    00000002     --HOLE-- [fill = 0]
                  0000fec0    00000008     rtsv7M4_T_le_v4SPD16_eabi.lib : errno.c.obj (.text:__aeabi_errno_addr)
                  0000fec8    00000008     drivers_tivaware.aem4f : UARTTiva.oem4f (.text:readSemCallback)
                  0000fed0    00000008     sysbios.aem4f : BIOS.obj (.text:ti_sysbios_family_arm_lm4_Timer_masterDisable__I)
                  0000fed8    00000008                   : BIOS.obj (.text:ti_sysbios_family_arm_m3_Hwi_doSwiRestore__I)
                  0000fee0    00000008                   : BIOS.obj (.text:ti_sysbios_family_arm_m3_Hwi_startup__E)
                  0000fee8    00000008     drivers_tivaware.aem4f : UARTTiva.oem4f (.text:writeSemCallback)
                  0000fef0    00000006     driverlib.lib : gpio.obj (.text:GPIOPinWrite)
                  0000fef6    00000006     grlib.lib : string.obj (.text:GrContextFontSet)
                  0000fefc    00000006     driverlib.lib : i2c.obj (.text:I2CMasterIntDisable)
                  0000ff02    00000006                   : i2c.obj (.text:I2CMasterIntEnable)
                  0000ff08    00000006     drivers_tivaware.aem4f : I2CTiva.oem4f (.text:I2CTiva_control)
                  0000ff0e    00000006                            : PWMTimerTiva.oem4f (.text:PWMTimerTiva_getPeriodMicroSecs)
                  0000ff14    00000006     driverlib.lib : sysctl.obj (.text:SysCtlDelay)
                  0000ff1a    00000006                   : uart.obj (.text:UARTFIFOLevelSet)
                  0000ff20    00000006                   : uart.obj (.text:UARTRxErrorClear)
                  0000ff26    00000006     grlib.lib : widget.obj (.text:WidgetMutexPut)
                  0000ff2c    00000004     --HOLE-- [fill = 0]
                  0000ff30    00000006     sysbios.aem4f : BIOS.obj (.text:ti_sysbios_family_arm_m3_Hwi_doTaskRestore__I)
                  0000ff36    00000002     --HOLE-- [fill = 0]
                  0000ff38    00000006                   : BIOS.obj (.text:ti_sysbios_family_arm_m3_Hwi_restoreFxn__E)
                  0000ff3e    00000002     --HOLE-- [fill = 0]
                  0000ff40    00000006                   : BIOS.obj (.text:ti_sysbios_gates_GateHwi_leave__E)
                  0000ff46    00000002     --HOLE-- [fill = 0]
                  0000ff48    00000006                   : BIOS.obj (.text:ti_sysbios_heaps_HeapMem_isBlocking__E)
                  0000ff4e    00000002     --HOLE-- [fill = 0]
                  0000ff50    00000006                   : BIOS.obj (.text:ti_sysbios_knl_Clock_stop__E)
                  0000ff56    00000002     --HOLE-- [fill = 0]
                  0000ff58    00000006                   : BIOS.obj (.text:ti_sysbios_knl_Queue_Instance_init__E)
                  0000ff5e    00000002     --HOLE-- [fill = 0]
                  0000ff60    00000006                   : BIOS.obj (.text:ti_sysbios_knl_Swi_startup__E)
                  0000ff66    00000006     ti.targets.arm.rtsarm.aem4f : System.oem4f (.text:xdc_runtime_System_Module_startup__E)
                  0000ff6c    00000004     --HOLE-- [fill = 0]
                  0000ff70    00000004     sysbios.aem4f : BIOS.obj (.text:ti_sysbios_gates_GateHwi_query__E)
                  0000ff74    00000004     --HOLE-- [fill = 0]
                  0000ff78    00000004                   : BIOS.obj (.text:ti_sysbios_gates_GateMutex_query__E)
                  0000ff7c    00000004     --HOLE-- [fill = 0]
                  0000ff80    00000004                   : BIOS.obj (.text:ti_sysbios_knl_Task_startup__E)
                  0000ff84    00000004     --HOLE-- [fill = 0]
                  0000ff88    00000002                   : BIOS.obj (.text:ti_sysbios_gates_GateHwi_Instance_init__E)
                  0000ff8a    00000006     --HOLE-- [fill = 0]
                  0000ff90    00000002                   : BIOS.obj (.text:ti_sysbios_knl_Clock_logTick__E)

.const     0    0000ff98    00004be0     
                  0000ff98    00001922     empty_pem4f.oem4f (.const:xdc_runtime_Text_charTab__A)
                  000118ba    00000002     empty_pem4f.oem4f (.const:ti_catalog_arm_cortexm4_tiva_ce_Boot_Module__id__C)
                  000118bc    00000004     bmi160.obj (.const)
                  000118c0    00001000     rtsv7M4_T_le_v4SPD16_eabi.lib : s_exp2.c.obj (.const:tbl)
                  000128c0    000007e5     grlib.lib : fontcmss18.obj (.const:.string:g_pui8Cmss18Data)
                  000130a5    00000782               : fontcmss18b.obj (.const:.string:g_pui8Cmss18bData)
                  00013827    00000001     empty_pem4f.oem4f (.const:xdc_runtime_Error_policy__C)
                  00013828    000001b0     driverlib.lib : sysctl.obj (.const:g_pppui32XTALtoVCO)
                  000139d8    00000120     Boot.aem4f : Boot_sysctl.oem4f (.const:g_pppui32XTALtoVCO)
                  00013af8    00000101     rtsv7M4_T_le_v4SPD16_eabi.lib : ctype.c.obj (.const:.string:_ctypes_)
                  00013bf9    00000001     --HOLE-- [fill = 0]
                  00013bfa    00000002     empty_pem4f.oem4f (.const:ti_sysbios_family_arm_m3_Hwi_Module__id__C)
                  00013bfc    000000c8     grlib.lib : fontcmss18.obj (.const:g_sFontCmss18)
                  00013cc4    000000c8               : fontcmss18b.obj (.const:g_sFontCmss18b)
                  00013d8c    000000c0     empty_pem4f.oem4f (.const:xdc_runtime_Text_nodeTab__A)
                  00013e4c    0000009e     grlib_demo.obj (.const:.string)
                  00013eea    00000002     empty_pem4f.oem4f (.const:ti_sysbios_gates_GateMutex_Module__id__C)
                  00013eec    00000090     driverlib.lib : gpio.obj (.const:g_pui32GPIOBaseAddrs)
                  00013f7c    00000070                   : interrupt.obj (.const)
                  00013fec    0000006c     Boot.aem4f : Boot_sysctl.oem4f (.const:g_pui32Xtals)
                  00014058    0000006c     driverlib.lib : sysctl.obj (.const:g_pui32Xtals)
                  000140c4    00000060     rtsv7M4_T_le_v4SPD16_eabi.lib : mktime.c.obj (.const:$O1$$)
                  00014124    00000060     MotorLib.lib : motorlib.obj (.const:PWM_config)
                  00014184    00000058     empty_pem4f.oem4f (.const:.string)
                  000141dc    00000054     drivers_tivaware.aem4f : GPIOTiva.oem4f (.const:.string)
                  00014230    00000054     MotorLib.lib : motorlib.obj (.const:motorLibPWMTivaHWAttrs)
                  00014284    0000004c     rtsv7M4_T_le_v4SPD16_eabi.lib : asctime.c.obj (.const:$O1$$)
                  000142d0    0000004c                                   : asctime.c.obj (.const:.string)
                  0001431c    0000004c     drivers_tivaware.aem4f : UARTTiva.oem4f (.const)
                  00014368    00000048                            : GPIOTiva.oem4f (.const:gpioBaseAddresses)
                  000143b0    0000003c     empty_pem4f.oem4f (.const:ti_sysbios_knl_Task_Object__PARAMS__C)
                  000143ec    00000004     empty_pem4f.oem4f (.const:ti_catalog_arm_cortexm4_tiva_ce_Boot_A_mustNotUseEnhancedClockMode__C)
                  000143f0    00000030     rtsv7M4_T_le_v4SPD16_eabi.lib : e_pow.c.obj (.const:$O1$$)
                  00014420    00000030     Boot.aem4f : Boot_sysctl.oem4f (.const:g_sXTALtoMEMTIM)
                  00014450    00000030     driverlib.lib : sysctl.obj (.const:g_sXTALtoMEMTIM)
                  00014480    00000030     empty_pem4f.oem4f (.const:ti_sysbios_family_arm_m3_Hwi_Object__PARAMS__C)
                  000144b0    00000030     EK_TM4C1294XL.obj (.const:uartTivaHWAttrs)
                  000144e0    0000002c     empty_pem4f.oem4f (.const:ti_sysbios_hal_Hwi_Object__PARAMS__C)
                  0001450c    00000028     drivers_tivaware.aem4f : UARTTiva.oem4f (.const:UARTTiva_fxnTable)
                  00014534    00000028     Kentec320x240x16_ssd2119_spi.obj (.const:g_sKentec320x240x16_SSD2119)
                  0001455c    00000028     empty_pem4f.oem4f (.const:ti_sysbios_heaps_HeapMem_Module__FXNS__C)
                  00014584    00000024     EK_TM4C1294XL.obj (.const:UART_config)
                  000145a8    00000024     drivers_tivaware.aem4f : UART.oem4f (.const:UART_defaultParams)
                  000145cc    00000024     empty_pem4f.oem4f (.const:ti_sysbios_gates_GateHwi_Module__FXNS__C)
                  000145f0    00000024     empty_pem4f.oem4f (.const:ti_sysbios_gates_GateMutex_Module__FXNS__C)
                  00014614    00000024     empty_pem4f.oem4f (.const:ti_sysbios_heaps_HeapMem_Object__PARAMS__C)
                  00014638    00000024     empty_pem4f.oem4f (.const:ti_sysbios_knl_Clock_Object__PARAMS__C)
                  0001465c    00000024     empty_pem4f.oem4f (.const:ti_sysbios_knl_Semaphore_Object__PARAMS__C)
                  00014680    00000020     drivers_tivaware.aem4f : PWMTimerTiva.oem4f (.const)
                  000146a0    00000020                            : PWMTiva.oem4f (.const)
                  000146c0    00000020     empty_pem4f.oem4f (.const:ti_sysbios_family_arm_m3_Hwi_Object__DESC__C)
                  000146e0    00000020     empty_pem4f.oem4f (.const:ti_sysbios_gates_GateHwi_Object__DESC__C)
                  00014700    00000020     empty_pem4f.oem4f (.const:ti_sysbios_gates_GateMutex_Object__DESC__C)
                  00014720    00000020     empty_pem4f.oem4f (.const:ti_sysbios_hal_Hwi_Object__DESC__C)
                  00014740    00000020     empty_pem4f.oem4f (.const:ti_sysbios_heaps_HeapMem_Object__DESC__C)
                  00014760    00000020     empty_pem4f.oem4f (.const:ti_sysbios_knl_Clock_Object__DESC__C)
                  00014780    00000020     empty_pem4f.oem4f (.const:ti_sysbios_knl_Event_Object__DESC__C)
                  000147a0    00000020     empty_pem4f.oem4f (.const:ti_sysbios_knl_Queue_Object__DESC__C)
                  000147c0    00000020     empty_pem4f.oem4f (.const:ti_sysbios_knl_Semaphore_Object__DESC__C)
                  000147e0    00000020     empty_pem4f.oem4f (.const:ti_sysbios_knl_Task_Object__DESC__C)
                  00014800    00000020     empty_pem4f.oem4f (.const:xdc_runtime_Startup_sfxnTab__A)
                  00014820    0000001c     drivers_tivaware.aem4f : I2CTiva.oem4f (.const)
                  0001483c    0000001c     touch.obj (.const:g_pi32TouchParameters)
                  00014858    00000018     EK_TM4C1294XL.obj (.const:I2C_config)
                  00014870    00000018     empty_pem4f.oem4f (.const:ti_sysbios_gates_GateHwi_Object__PARAMS__C)
                  00014888    00000018     empty_pem4f.oem4f (.const:ti_sysbios_gates_GateMutex_Object__PARAMS__C)
                  000148a0    00000018     empty_pem4f.oem4f (.const:ti_sysbios_knl_Event_Object__PARAMS__C)
                  000148b8    00000018     empty_pem4f.oem4f (.const:ti_sysbios_knl_Queue_Object__PARAMS__C)
                  000148d0    00000014     EK_TM4C1294XL.obj (.const:GPIOTiva_config)
                  000148e4    00000014     empty_pem4f.oem4f (.const:xdc_runtime_Startup_firstFxns__A)
                  000148f8    00000010     drivers_tivaware.aem4f : I2C.oem4f (.const)
                  00014908    00000010     grlib.lib : context.obj (.const)
                  00014918    00000010     MotorLib.lib : motorlib.obj (.const:motorLibPWMTimerTivaHWAttrs)
                  00014928    00000010     empty_pem4f.oem4f (.const:xdc_runtime_Startup_sfxnRts__A)
                  00014938    0000000c     drivers_tivaware.aem4f : PWM.oem4f (.const)
                  00014944    0000000c     EK_TM4C1294XL.obj (.const:i2cTivaHWAttrs)
                  00014950    00000008     Boot.aem4f : Boot_sysctl.oem4f (.const)
                  00014958    00000008     driverlib.lib : sysctl.obj (.const)
                  00014960    00000008     empty_pem4f.oem4f (.const:ti_sysbios_family_arm_m3_Hwi_excHookFuncs__A)
                  00014968    00000008     empty_pem4f.oem4f (.const:ti_sysbios_knl_Idle_funcList__C)
                  00014970    00000008     empty_pem4f.oem4f (.const:xdc_runtime_Startup_firstFxns__C)
                  00014978    00000008     empty_pem4f.oem4f (.const:xdc_runtime_Startup_lastFxns__C)
                  00014980    00000004     empty_pem4f.oem4f (.const:ti_catalog_arm_cortexm4_tiva_ce_Boot_Module__diagsEnabled__C)
                  00014984    00000004     empty_pem4f.oem4f (.const:ti_catalog_arm_cortexm4_tiva_ce_Boot_Module__diagsIncluded__C)
                  00014988    00000004     empty_pem4f.oem4f (.const:ti_catalog_arm_cortexm4_tiva_ce_Boot_Module__diagsMask__C)
                  0001498c    00000004     empty_pem4f.oem4f (.const:ti_sysbios_family_arm_lm4_Timer_enableFunc__C)
                  00014990    00000004     empty_pem4f.oem4f (.const:ti_sysbios_family_arm_lm4_Timer_numTimerDevices__C)
                  00014994    00000004     empty_pem4f.oem4f (.const:ti_sysbios_family_arm_lm4_Timer_startupNeeded__C)
                  00014998    00000004     empty_pem4f.oem4f (.const:ti_sysbios_family_arm_m3_Hwi_E_NMI__C)
                  0001499c    00000004     empty_pem4f.oem4f (.const:ti_sysbios_family_arm_m3_Hwi_E_alreadyDefined__C)
                  000149a0    00000004     empty_pem4f.oem4f (.const:ti_sysbios_family_arm_m3_Hwi_E_busFault__C)
                  000149a4    00000004     empty_pem4f.oem4f (.const:ti_sysbios_family_arm_m3_Hwi_E_debugMon__C)
                  000149a8    00000004     empty_pem4f.oem4f (.const:ti_sysbios_family_arm_m3_Hwi_E_hardFault__C)
                  000149ac    00000004     empty_pem4f.oem4f (.const:ti_sysbios_family_arm_m3_Hwi_E_memFault__C)
                  000149b0    00000004     empty_pem4f.oem4f (.const:ti_sysbios_family_arm_m3_Hwi_E_noIsr__C)
                  000149b4    00000004     empty_pem4f.oem4f (.const:ti_sysbios_family_arm_m3_Hwi_E_reserved__C)
                  000149b8    00000004     empty_pem4f.oem4f (.const:ti_sysbios_family_arm_m3_Hwi_E_svCall__C)
                  000149bc    00000004     empty_pem4f.oem4f (.const:ti_sysbios_family_arm_m3_Hwi_E_usageFault__C)
                  000149c0    00000004     empty_pem4f.oem4f (.const:ti_sysbios_family_arm_m3_Hwi_NUM_INTERRUPTS__C)
                  000149c4    00000004     empty_pem4f.oem4f (.const:ti_sysbios_family_arm_m3_Hwi_Object__count__C)
                  000149c8    00000004     empty_pem4f.oem4f (.const:ti_sysbios_family_arm_m3_Hwi_ccr__C)
                  000149cc    00000004     empty_pem4f.oem4f (.const:ti_sysbios_family_arm_m3_Hwi_excHandlerFunc__C)
                  000149d0    00000004     empty_pem4f.oem4f (.const:ti_sysbios_family_arm_m3_Hwi_excHookFuncs__C)
                  000149d4    00000004     empty_pem4f.oem4f (.const:ti_sysbios_family_arm_m3_Hwi_nullIsrFunc__C)
                  000149d8    00000004     empty_pem4f.oem4f (.const:ti_sysbios_family_arm_m3_Hwi_priGroup__C)
                  000149dc    00000004     empty_pem4f.oem4f (.const:ti_sysbios_family_arm_m3_TaskSupport_stackAlignment__C)
                  000149e0    00000004     empty_pem4f.oem4f (.const:ti_sysbios_gates_GateMutex_A_badContext__C)
                  000149e4    00000004     empty_pem4f.oem4f (.const:ti_sysbios_gates_GateMutex_Instance_State_sem__O)
                  000149e8    00000004     empty_pem4f.oem4f (.const:ti_sysbios_gates_GateMutex_Module__diagsEnabled__C)
                  000149ec    00000004     empty_pem4f.oem4f (.const:ti_sysbios_gates_GateMutex_Module__diagsIncluded__C)
                  000149f0    00000004     empty_pem4f.oem4f (.const:ti_sysbios_gates_GateMutex_Module__diagsMask__C)
                  000149f4    00000004     empty_pem4f.oem4f (.const:ti_sysbios_hal_Hwi_E_stackOverflow__C)
                  000149f8    00000004     empty_pem4f.oem4f (.const:ti_sysbios_heaps_HeapMem_A_align__C)
                  000149fc    00000004     empty_pem4f.oem4f (.const:ti_sysbios_heaps_HeapMem_A_heapSize__C)
                  00014a00    00000004     empty_pem4f.oem4f (.const:ti_sysbios_heaps_HeapMem_A_invalidFree__C)
                  00014a04    00000004     empty_pem4f.oem4f (.const:ti_sysbios_heaps_HeapMem_A_zeroBlock__C)
                  00014a08    00000004     empty_pem4f.oem4f (.const:ti_sysbios_heaps_HeapMem_E_memory__C)
                  00014a0c    00000004     empty_pem4f.oem4f (.const:ti_sysbios_heaps_HeapMem_Module__diagsEnabled__C)
                  00014a10    00000004     empty_pem4f.oem4f (.const:ti_sysbios_heaps_HeapMem_Module__diagsIncluded__C)
                  00014a14    00000004     empty_pem4f.oem4f (.const:ti_sysbios_heaps_HeapMem_Module__diagsMask__C)
                  00014a18    00000004     empty_pem4f.oem4f (.const:ti_sysbios_heaps_HeapMem_Module__gateObj__C)
                  00014a1c    00000004     empty_pem4f.oem4f (.const:ti_sysbios_heaps_HeapMem_Object__count__C)
                  00014a20    00000004     empty_pem4f.oem4f (.const:ti_sysbios_heaps_HeapMem_reqAlign__C)
                  00014a24    00000004     empty_pem4f.oem4f (.const:ti_sysbios_knl_Clock_A_badThreadType__C)
                  00014a28    00000004     empty_pem4f.oem4f (.const:ti_sysbios_knl_Clock_Module_State_clockQ__O)
                  00014a2c    00000004     empty_pem4f.oem4f (.const:ti_sysbios_knl_Clock_Module__diagsEnabled__C)
                  00014a30    00000004     empty_pem4f.oem4f (.const:ti_sysbios_knl_Clock_Module__diagsIncluded__C)
                  00014a34    00000004     empty_pem4f.oem4f (.const:ti_sysbios_knl_Clock_Module__diagsMask__C)
                  00014a38    00000004     empty_pem4f.oem4f (.const:ti_sysbios_knl_Event_A_badContext__C)
                  00014a3c    00000004     empty_pem4f.oem4f (.const:ti_sysbios_knl_Event_A_eventInUse__C)
                  00014a40    00000004     empty_pem4f.oem4f (.const:ti_sysbios_knl_Event_A_nullEventId__C)
                  00014a44    00000004     empty_pem4f.oem4f (.const:ti_sysbios_knl_Event_A_nullEventMasks__C)
                  00014a48    00000004     empty_pem4f.oem4f (.const:ti_sysbios_knl_Event_A_pendTaskDisabled__C)
                  00014a4c    00000004     empty_pem4f.oem4f (.const:ti_sysbios_knl_Event_Instance_State_pendQ__O)
                  00014a50    00000004     empty_pem4f.oem4f (.const:ti_sysbios_knl_Event_Module__diagsEnabled__C)
                  00014a54    00000004     empty_pem4f.oem4f (.const:ti_sysbios_knl_Event_Module__diagsIncluded__C)
                  00014a58    00000004     empty_pem4f.oem4f (.const:ti_sysbios_knl_Event_Module__diagsMask__C)
                  00014a5c    00000004     empty_pem4f.oem4f (.const:ti_sysbios_knl_Idle_funcList__A)
                  00014a60    00000004     empty_pem4f.oem4f (.const:ti_sysbios_knl_Semaphore_A_badContext__C)
                  00014a64    00000004     empty_pem4f.oem4f (.const:ti_sysbios_knl_Semaphore_A_noEvents__C)
                  00014a68    00000004     empty_pem4f.oem4f (.const:ti_sysbios_knl_Semaphore_A_overflow__C)
                  00014a6c    00000004     empty_pem4f.oem4f (.const:ti_sysbios_knl_Semaphore_A_pendTaskDisabled__C)
                  00014a70    00000004     empty_pem4f.oem4f (.const:ti_sysbios_knl_Semaphore_Instance_State_pendQ__O)
                  00014a74    00000004     empty_pem4f.oem4f (.const:ti_sysbios_knl_Semaphore_Module__diagsEnabled__C)
                  00014a78    00000004     empty_pem4f.oem4f (.const:ti_sysbios_knl_Semaphore_Module__diagsIncluded__C)
                  00014a7c    00000004     empty_pem4f.oem4f (.const:ti_sysbios_knl_Semaphore_Module__diagsMask__C)
                  00014a80    00000004     empty_pem4f.oem4f (.const:ti_sysbios_knl_Swi_Object__count__C)
                  00014a84    00000004     empty_pem4f.oem4f (.const:ti_sysbios_knl_Task_A_badPriority__C)
                  00014a88    00000004     empty_pem4f.oem4f (.const:ti_sysbios_knl_Task_A_badTaskState__C)
                  00014a8c    00000004     empty_pem4f.oem4f (.const:ti_sysbios_knl_Task_A_badThreadType__C)
                  00014a90    00000004     empty_pem4f.oem4f (.const:ti_sysbios_knl_Task_A_badTimeout__C)
                  00014a94    00000004     empty_pem4f.oem4f (.const:ti_sysbios_knl_Task_A_noPendElem__C)
                  00014a98    00000004     empty_pem4f.oem4f (.const:ti_sysbios_knl_Task_A_sleepTaskDisabled__C)
                  00014a9c    00000004     empty_pem4f.oem4f (.const:ti_sysbios_knl_Task_E_spOutOfBounds__C)
                  00014aa0    00000004     empty_pem4f.oem4f (.const:ti_sysbios_knl_Task_E_stackOverflow__C)
                  00014aa4    00000004     empty_pem4f.oem4f (.const:ti_sysbios_knl_Task_Module_State_inactiveQ__O)
                  00014aa8    00000004     empty_pem4f.oem4f (.const:ti_sysbios_knl_Task_Module__diagsEnabled__C)
                  00014aac    00000004     empty_pem4f.oem4f (.const:ti_sysbios_knl_Task_Module__diagsIncluded__C)
                  00014ab0    00000004     empty_pem4f.oem4f (.const:ti_sysbios_knl_Task_Module__diagsMask__C)
                  00014ab4    00000004     empty_pem4f.oem4f (.const:ti_sysbios_knl_Task_Object__count__C)
                  00014ab8    00000004     empty_pem4f.oem4f (.const:ti_sysbios_knl_Task_allBlockedFunc__C)
                  00014abc    00000004     empty_pem4f.oem4f (.const:ti_sysbios_knl_Task_defaultStackHeap__C)
                  00014ac0    00000004     empty_pem4f.oem4f (.const:ti_sysbios_knl_Task_defaultStackSize__C)
                  00014ac4    00000004     empty_pem4f.oem4f (.const:ti_sysbios_knl_Task_numConstructedTasks__C)
                  00014ac8    00000004     empty_pem4f.oem4f (.const:xdc_runtime_Assert_E_assertFailed__C)
                  00014acc    00000004     empty_pem4f.oem4f (.const:xdc_runtime_Core_A_initializedParams__C)
                  00014ad0    00000004     empty_pem4f.oem4f (.const:xdc_runtime_Core_Module__diagsEnabled__C)
                  00014ad4    00000004     empty_pem4f.oem4f (.const:xdc_runtime_Core_Module__diagsIncluded__C)
                  00014ad8    00000004     empty_pem4f.oem4f (.const:xdc_runtime_Core_Module__diagsMask__C)
                  00014adc    00000004     empty_pem4f.oem4f (.const:xdc_runtime_Error_E_generic__C)
                  00014ae0    00000004     empty_pem4f.oem4f (.const:xdc_runtime_Error_E_memory__C)
                  00014ae4    00000004     empty_pem4f.oem4f (.const:xdc_runtime_Error_Module__diagsEnabled__C)
                  00014ae8    00000004     empty_pem4f.oem4f (.const:xdc_runtime_Error_Module__diagsIncluded__C)
                  00014aec    00000004     empty_pem4f.oem4f (.const:xdc_runtime_Error_Module__diagsMask__C)
                  00014af0    00000004     empty_pem4f.oem4f (.const:xdc_runtime_Error_Module__loggerFxn8__C)
                  00014af4    00000004     empty_pem4f.oem4f (.const:xdc_runtime_Error_Module__loggerObj__C)
                  00014af8    00000004     empty_pem4f.oem4f (.const:xdc_runtime_Error_policyFxn__C)
                  00014afc    00000004     empty_pem4f.oem4f (.const:xdc_runtime_Error_raiseHook__C)
                  00014b00    00000004     empty_pem4f.oem4f (.const:xdc_runtime_IGateProvider_Interface__BASE__C)
                  00014b04    00000004     empty_pem4f.oem4f (.const:xdc_runtime_IHeap_Interface__BASE__C)
                  00014b08    00000004     empty_pem4f.oem4f (.const:xdc_runtime_IModule_Interface__BASE__C)
                  00014b0c    00000004     empty_pem4f.oem4f (.const:xdc_runtime_Log_L_error__C)
                  00014b10    00000004     empty_pem4f.oem4f (.const:xdc_runtime_Memory_defaultHeapInstance__C)
                  00014b14    00000004     empty_pem4f.oem4f (.const:xdc_runtime_Startup_execImpl__C)
                  00014b18    00000004     empty_pem4f.oem4f (.const:xdc_runtime_Startup_maxPasses__C)
                  00014b1c    00000004     empty_pem4f.oem4f (.const:xdc_runtime_Startup_sfxnRts__C)
                  00014b20    00000004     empty_pem4f.oem4f (.const:xdc_runtime_Startup_sfxnTab__C)
                  00014b24    00000004     empty_pem4f.oem4f (.const:xdc_runtime_SysMin_bufSize__C)
                  00014b28    00000004     empty_pem4f.oem4f (.const:xdc_runtime_SysMin_outputFunc__C)
                  00014b2c    00000004     empty_pem4f.oem4f (.const:xdc_runtime_System_Module__gateObj__C)
                  00014b30    00000004     empty_pem4f.oem4f (.const:xdc_runtime_System_abortFxn__C)
                  00014b34    00000004     empty_pem4f.oem4f (.const:xdc_runtime_System_exitFxn__C)
                  00014b38    00000004     empty_pem4f.oem4f (.const:xdc_runtime_System_extendFxn__C)
                  00014b3c    00000004     empty_pem4f.oem4f (.const:xdc_runtime_System_maxAtexitHandlers__C)
                  00014b40    00000004     empty_pem4f.oem4f (.const:xdc_runtime_Text_charTab__C)
                  00014b44    00000004     empty_pem4f.oem4f (.const:xdc_runtime_Text_nameEmpty__C)
                  00014b48    00000004     empty_pem4f.oem4f (.const:xdc_runtime_Text_nameStatic__C)
                  00014b4c    00000004     empty_pem4f.oem4f (.const:xdc_runtime_Text_nameUnknown__C)
                  00014b50    00000004     empty_pem4f.oem4f (.const:xdc_runtime_Text_nodeTab__C)
                  00014b54    00000004     empty_pem4f.oem4f (.const:xdc_runtime_Text_visitRopeFxn__C)
                  00014b58    00000002     empty_pem4f.oem4f (.const:ti_sysbios_hal_Hwi_Module__id__C)
                  00014b5a    00000002     empty_pem4f.oem4f (.const:ti_sysbios_heaps_HeapMem_Module__id__C)
                  00014b5c    00000002     empty_pem4f.oem4f (.const:ti_sysbios_knl_Clock_Module__id__C)
                  00014b5e    00000002     empty_pem4f.oem4f (.const:ti_sysbios_knl_Event_Module__id__C)
                  00014b60    00000002     empty_pem4f.oem4f (.const:ti_sysbios_knl_Semaphore_Module__id__C)
                  00014b62    00000002     empty_pem4f.oem4f (.const:ti_sysbios_knl_Task_Module__id__C)
                  00014b64    00000002     empty_pem4f.oem4f (.const:xdc_runtime_Core_Module__id__C)
                  00014b66    00000002     empty_pem4f.oem4f (.const:xdc_runtime_Error_Module__loggerDefined__C)
                  00014b68    00000002     empty_pem4f.oem4f (.const:xdc_runtime_Error_maxDepth__C)
                  00014b6a    00000002     empty_pem4f.oem4f (.const:xdc_runtime_Main_Module__id__C)
                  00014b6c    00000002     empty_pem4f.oem4f (.const:xdc_runtime_Memory_Module__id__C)
                  00014b6e    00000002     empty_pem4f.oem4f (.const:xdc_runtime_SysMin_flushAtExit__C)
                  00014b70    00000002     empty_pem4f.oem4f (.const:xdc_runtime_Text_charCnt__C)
                  00014b72    00000002     empty_pem4f.oem4f (.const:xdc_runtime_Text_isLoaded__C)
                  00014b74    00000002     empty_pem4f.oem4f (.const:xdc_runtime_Text_registryModsLastId__C)
                  00014b76    00000002     empty_pem4f.oem4f (.const:xdc_runtime_Text_unnamedModsLastId__C)

.cinit     0    00014b78    00000440     
                  00014b78    00000409     (.cinit..data.load) [load image, compression = lzss]
                  00014f81    00000003     --HOLE-- [fill = 0]
                  00014f84    0000000c     (__TI_handler_table)
                  00014f90    00000008     (.cinit..bss.load) [load image, compression = zero_init]
                  00014f98    00000008     (.cinit..vecs.load) [load image, compression = zero_init]
                  00014fa0    00000018     (__TI_cinit_table)

.init_array 
*          0    00000000    00000000     UNINITIALIZED

.resetVecs 
*          0    00000000    0000003c     
                  00000000    0000003c     empty_pem4f.oem4f (.resetVecs)

.bss       0    20000360    00003eaa     UNINITIALIZED
                  20000360    00001200     empty_pem4f.oem4f (.bss:taskStackSection)
                  20001560    00001000     (.common:taskLightStack)
                  20002560    00000800     (.common:taskAccelStack)
                  20002d60    00000400     (.common:ti_sysbios_heaps_HeapMem_Instance_State_0_buf__A)
                  20003160    00000400     (.common:xdc_runtime_SysMin_Module_State_0_outbuf__A)
                  20003560    00000360     (.common:ti_sysbios_family_arm_m3_Hwi_dispatchTable)
                  200038c0    00000198     (.common:uartTivaObjects)
                  20003a58    00000140     grlib.lib : widget.obj (.bss:g_psMQ)
                  20003b98    00000120     rtsv7M4_T_le_v4SPD16_eabi.lib : trgmsg.c.obj (.bss:_CIOBUF_)
                  20003cb8    00000090     drivers_tivaware.aem4f : GPIOTiva.oem4f (.bss:gpioCallbackInfo)
                  20003d48    00000080     (.common:i2cTivaObjects)
                  20003dc8    00000040     (.common:uartTivaRingBuffer)
                  20003e08    00000038     (.common:motorLibPWMObjects)
                  20003e40    00000030     (.common:eb)
                  20003e70    0000002c     (.common:sContext)
                  20003e9c    00000024     (.common:clkSensorParams)
                  20003ec0    00000024     (.common:clockAccelerationStruct)
                  20003ee4    00000024     (.common:clockLightStruct)
                  20003f08    00000024     (.common:clockUpdateGraph)
                  20003f2c    00000024     (.common:clockUpdateTime)
                  20003f50    00000024     (.common:uartParams)
                  20003f74    00000020     MotorLib.lib : motorlib.obj (.bss:PWMStruct)
                  20003f94    00000020     grlib_demo.obj (.bss:currentValue$1)
                  20003fb4    00000020     (.common:g_pui8Dictionary)
                  20003fd4    00000020     (.common:maxTime)
                  20003ff4    00000020     (.common:minTime)
                  20004014    0000001c     rtsv7M4_T_le_v4SPD16_eabi.lib : asctime.c.obj (.bss:time_buf)
                  20004030    0000001c     (.common:semAccelStruct)
                  2000404c    0000001c     (.common:semLightStruct)
                  20004068    0000001c     (.common:semStruct)
                  20004084    00000018     (.common:gHwiprms)
                  2000409c    00000018     (.common:lightBuffer)
                  200040b4    00000018     (.common:motorLibPWMTimerObjects)
                  200040cc    00000014     (.common:accelerationBuffer)
                  200040e0    00000014     (.common:evtStruct)
                  200040f4    00000014     (.common:valueText)
                  20004108    00000010     touch.obj (.bss:g_pi16Samples)
                  20004118    0000000c     (.common:av)
                  20004124    0000000c     (.common:pui32ADC0Value)
                  20004130    00000008     touch.obj (.bss)
                  20004138    00000008     (.common:graphMax)
                  20004140    00000008     (.common:graphMin)
                  20004148    00000008     (.common:parmbuf)
                  20004150    00000004     (.common:SysTicks)
                  20004154    00000004     (.common:accel_avg)
                  20004158    00000004     (.common:accel_mag)
                  2000415c    00000004     (.common:acceleration)
                  20004160    00000004     (.common:acceleration_avg)
                  20004164    00000004     (.common:adc0)
                  20004168    00000004     (.common:current)
                  2000416c    00000004     (.common:data_Graph)
                  20004170    00000004     (.common:delta_rpm)
                  20004174    00000004     (.common:delta_time)
                  20004178    00000004     (.common:error)
                  2000417c    00000004     (.common:evtHandle)
                  20004180    00000004     (.common:g_currentLimit)
                  20004184    00000004     (.common:g_drawingGraph)
                  20004188    00000004     (.common:g_motorSpeed)
                  2000418c    00000004     (.common:g_numPlotOverflow)
                  20004190    00000004     (.common:g_numPlotPoints)
                  20004194    00000004     (.common:g_pi32ParmSet)
                  20004198    00000004     (.common:g_psGrLibDefaults)
                  2000419c    00000004     (.common:g_sCurrentPanel)
                  200041a0    00000004     (.common:g_ui32SysClock)
                  200041a4    00000004     (.common:gateHwi)
                  200041a8    00000004     (.common:gpioInterruptVectors)
                  200041ac    00000004     (.common:graphIntMax)
                  200041b0    00000004     (.common:graphIntMin)
                  200041b4    00000004     (.common:hA)
                  200041b8    00000004     (.common:hB)
                  200041bc    00000004     (.common:hC)
                  200041c0    00000004     (.common:hallA)
                  200041c4    00000004     (.common:hallB)
                  200041c8    00000004     (.common:hallC)
                  200041cc    00000004     (.common:light_i2c)
                  200041d0    00000004     (.common:output)
                  200041d4    00000004     (.common:previousPoint)
                  200041d8    00000004     (.common:rpm_avg)
                  200041dc    00000004     (.common:rpm_from_UI)
                  200041e0    00000004     (.common:semAccelHandle)
                  200041e4    00000004     (.common:semHandle)
                  200041e8    00000004     (.common:semLightHandle)
                  200041ec    00000004     (.common:t)
                  200041f0    00000004     (.common:uart)
                  200041f4    00000004     (.common:voltage)
                  200041f8    00000004     (.common:y_graph_step)
                  200041fc    00000002     (.common:g_i16TouchX)
                  200041fe    00000002     (.common:g_i16TouchY)
                  20004200    00000001     (.common:ThresholdAccel)
                  20004201    00000001     (.common:e_event)
                  20004202    00000001     (.common:e_stop)
                  20004203    00000001     (.common:g_accelerationLimit)
                  20004204    00000001     (.common:motorStartedUI)
                  20004205    00000001     (.common:motorState)
                  20004206    00000001     (.common:print_from_clock)
                  20004207    00000001     (.common:running)
                  20004208    00000001     (.common:success)
                  20004209    00000001     (.common:updateGraph)

.data      0    2000420c    00000d18     UNINITIALIZED
                  2000420c    000000e4     empty_pem4f.oem4f (.data:ti_sysbios_knl_Task_Object__table__V)
                  200042f0    00000080     empty_pem4f.oem4f (.data:ti_sysbios_knl_Swi_Module_State_0_readyQ__A)
                  20004370    00000068     motor_api.obj (.data)
                  200043d8    00000050     grlib_demo.obj (.data:g_sGraphAcceleration)
                  20004428    00000050     grlib_demo.obj (.data:g_sGraphBack)
                  20004478    00000050     grlib_demo.obj (.data:g_sGraphExit)
                  200044c8    00000050     grlib_demo.obj (.data:g_sGraphLight)
                  20004518    00000050     grlib_demo.obj (.data:g_sGraphOption)
                  20004568    00000050     grlib_demo.obj (.data:g_sGraphPower)
                  200045b8    00000050     grlib_demo.obj (.data:g_sGraphSpeed)
                  20004608    00000050     grlib_demo.obj (.data:g_sGraphTitle)
                  20004658    00000050     grlib_demo.obj (.data:g_sMotorOption)
                  200046a8    00000050     grlib_demo.obj (.data:g_sSetOption)
                  200046f8    00000050     grlib_demo.obj (.data:g_sSettingAcceleration)
                  20004748    00000050     grlib_demo.obj (.data:g_sSettingBack)
                  20004798    00000050     grlib_demo.obj (.data:g_sSettingCurrent)
                  200047e8    00000050     grlib_demo.obj (.data:g_sSettingDecrease)
                  20004838    00000050     grlib_demo.obj (.data:g_sSettingExit)
                  20004888    00000050     grlib_demo.obj (.data:g_sSettingIncrease)
                  200048d8    00000050     grlib_demo.obj (.data:g_sSettingSpeed)
                  20004928    00000050     grlib_demo.obj (.data:g_sSettingTitle)
                  20004978    00000050     grlib_demo.obj (.data:g_sSettingValue)
                  200049c8    00000044     empty_pem4f.oem4f (.data:ti_sysbios_knl_Task_Module__state__V)
                  20004a0c    00000040     grlib_demo.obj (.data:g_sGraph)
                  20004a4c    00000040     grlib_demo.obj (.data:g_sGraphPage)
                  20004a8c    00000040     grlib_demo.obj (.data:g_sGraphsMainPage)
                  20004acc    00000040     grlib_demo.obj (.data:g_sMainPage)
                  20004b0c    00000040     grlib_demo.obj (.data:g_sSettingPage)
                  20004b4c    00000040     grlib_demo.obj (.data:g_sSettingsMainPage)
                  20004b8c    00000040     empty_pem4f.oem4f (.data:ti_sysbios_family_arm_lm4_Timer_Module_State_0_device__A)
                  20004bcc    00000040     empty_pem4f.oem4f (.data:ti_sysbios_family_arm_lm4_Timer_Object__table__V)
                  20004c0c    00000038     empty_pem4f.oem4f (.data:ti_sysbios_gates_GateMutex_Object__table__V)
                  20004c44    00000034     empty_pem4f.oem4f (.data:ti_sysbios_family_arm_m3_Hwi_Module__state__V)
                  20004c78    00000030     empty_pem4f.oem4f (.data:ti_sysbios_family_arm_m3_Hwi_Object__table__V)
                  20004ca8    00000030     empty_pem4f.oem4f (.data:ti_sysbios_knl_Swi_Object__table__V)
                  20004cd8    0000002d     grlib.lib : widget.obj (.data)
                  20004d05    00000001     --HOLE--
                  20004d06    00000002     empty_pem4f.oem4f (.data:ti_sysbios_family_arm_m3_Hwi_Module_State_0_excActive__A)
                  20004d08    0000002c     empty_pem4f.oem4f (.data:ti_sysbios_knl_Clock_Module__state__V)
                  20004d34    00000024     rtsv7M4_T_le_v4SPD16_eabi.lib : localtim.c.obj (.data:local_tm)
                  20004d58    00000024     empty_pem4f.oem4f (.data:ti_sysbios_BIOS_Module__state__V)
                  20004d7c    00000020     EK_TM4C1294XL.obj (.data:gpioPinConfigs)
                  20004d9c    00000020     empty_pem4f.oem4f (.data:ti_sysbios_family_arm_lm4_Timer_Module_State_0_handles__A)
                  20004dbc    00000020     empty_pem4f.oem4f (.data:ti_sysbios_knl_Task_Module_State_0_readyQ__A)
                  20004ddc    0000001c     empty_pem4f.oem4f (.data:ti_sysbios_knl_Swi_Module__state__V)
                  20004df8    00000018     drivers_tivaware.aem4f : PWMTiva.oem4f (.data)
                  20004e10    00000018     empty_pem4f.oem4f (.data:ti_sysbios_heaps_HeapMem_Object__table__V)
                  20004e28    00000015     grlib_demo.obj (.data)
                  20004e3d    00000001     --HOLE--
                  20004e3e    00000002     empty_pem4f.oem4f (.data:xdc_runtime_Error_Module__state__V)
                  20004e40    00000010     rtsv7M4_T_le_v4SPD16_eabi.lib : tmzone.c.obj (.data:_tz)
                  20004e50    0000000c     empty_pem4f.oem4f (.data:ti_sysbios_family_arm_lm4_Timer_Module__state__V)
                  20004e5c    0000000c     empty_pem4f.oem4f (.data:xdc_runtime_SysMin_Module__state__V)
                  20004e68    00000008     rtsv7M4_T_le_v4SPD16_eabi.lib : _lock.c.obj (.data:$O1$$)
                  20004e70    00000008     EK_TM4C1294XL.obj (.data:gpioCallbackFunctions)
                  20004e78    00000008     empty_pem4f.oem4f (.data:ti_sysbios_family_arm_m3_Hwi_Module__root__V)
                  20004e80    00000008     empty_pem4f.oem4f (.data:ti_sysbios_gates_GateHwi_Module__root__V)
                  20004e88    00000008     empty_pem4f.oem4f (.data:ti_sysbios_gates_GateMutex_Module__root__V)
                  20004e90    00000008     empty_pem4f.oem4f (.data:ti_sysbios_hal_Hwi_Module__root__V)
                  20004e98    00000008     empty_pem4f.oem4f (.data:ti_sysbios_heaps_HeapMem_Module__root__V)
                  20004ea0    00000008     empty_pem4f.oem4f (.data:ti_sysbios_knl_Clock_Module__root__V)
                  20004ea8    00000008     empty_pem4f.oem4f (.data:ti_sysbios_knl_Event_Module__root__V)
                  20004eb0    00000008     empty_pem4f.oem4f (.data:ti_sysbios_knl_Queue_Module__root__V)
                  20004eb8    00000008     empty_pem4f.oem4f (.data:ti_sysbios_knl_Semaphore_Module__root__V)
                  20004ec0    00000008     empty_pem4f.oem4f (.data:ti_sysbios_knl_Task_Module__root__V)
                  20004ec8    00000008     empty_pem4f.oem4f (.data:xdc_runtime_Registry_Module__state__V)
                  20004ed0    00000008     empty_pem4f.oem4f (.data:xdc_runtime_Startup_Module__state__V)
                  20004ed8    00000008     empty_pem4f.oem4f (.data:xdc_runtime_System_Module_State_0_atexitHandlers__A)
                  20004ee0    00000008     empty_pem4f.oem4f (.data:xdc_runtime_System_Module__state__V)
                  20004ee8    00000005     drivers_tivaware.aem4f : GPIOTiva.oem4f (.data)
                  20004eed    00000003     --HOLE--
                  20004ef0    00000005     sensors_api.obj (.data)
                  20004ef5    00000003     --HOLE--
                  20004ef8    00000004     drivers_tivaware.aem4f : I2C.oem4f (.data)
                  20004efc    00000004                            : PWM.oem4f (.data)
                  20004f00    00000004                            : UART.oem4f (.data)
                  20004f04    00000004     rtsv7M4_T_le_v4SPD16_eabi.lib : errno.c.obj (.data)
                  20004f08    00000004                                   : stkdepth_vars.c.obj (.data)
                  20004f0c    00000004     empty_pem4f.oem4f (.data:ti_sysbios_family_arm_m3_Hwi_Module_State_0_excContext__A)
                  20004f10    00000004     empty_pem4f.oem4f (.data:ti_sysbios_family_arm_m3_Hwi_Module_State_0_excStack__A)
                  20004f14    00000004     empty_pem4f.oem4f (.data:ti_sysbios_gates_GateHwi_Object__table__V)
                  20004f18    00000004     empty_pem4f.oem4f (.data:ti_sysbios_knl_Task_Module_State_0_idleTask__A)
                  20004f1c    00000004     touch.obj (.data)
                  20004f20    00000004     empty_pem4f.oem4f (.data:xdc_runtime_Memory_Module__state__V)

.stack     0    20004f28    00000300     UNINITIALIZED
                  20004f28    00000300     --HOLE--

.bootVecs 
*          0    00000000    00000008     DSECT
                  00000000    00000008     boot.aem4f : boot.oem4f (.bootVecs)

.vecs      0    20000000    00000360     UNINITIALIZED
                  20000000    00000360     empty_pem4f.oem4f (.vecs)

xdc.meta   0    00000000    000000fa     COPY SECTION
                  00000000    000000fa     empty_pem4f.oem4f (xdc.meta)

__llvm_prf_cnts 
*          0    20000000    00000000     UNINITIALIZED

MODULE SUMMARY

       Module                             code    ro data   rw data
       ------                             ----    -------   -------
    .\
       empty.obj                          492     0         4251   
       EK_TM4C1294XL.obj                  336     140       640    
    +--+----------------------------------+-------+---------+---------+
       Total:                             828     140       4891   
                                                                   
    .\drivers\
       Kentec320x240x16_ssd2119_spi.obj   1968    40        0      
       touch.obj                          1280    28        36     
       pinout.obj                         420     0         0      
    +--+----------------------------------+-------+---------+---------+
       Total:                             3668    68        36     
                                                                   
    .\motor\
       motor_api.obj                      2604    0         330    
    +--+----------------------------------+-------+---------+---------+
       Total:                             2604    0         330    
                                                                   
    .\sensors\
       sensors_api.obj                    1378    0         2330   
    +--+----------------------------------+-------+---------+---------+
       Total:                             1378    0         2330   
                                                                   
    .\sensors\BMI160\
       bmi160.obj                         650     4         0      
    +--+----------------------------------+-------+---------+---------+
       Total:                             650     4         0      
                                                                   
    .\sensors\opt3001\
       opt3001.obj                        504     0         0      
    +--+----------------------------------+-------+---------+---------+
       Total:                             504     0         0      
                                                                   
    .\ui\
       grlib_demo.obj                     3644    158       2073   
    +--+----------------------------------+-------+---------+---------+
       Total:                             3644    158       2073   
                                                                   
    C:\Users\shann\Documents\2021\GANGGANGGANG\empty_EK_TM4C1294XL_TI\Debug\configPkg\package\cfg\
       empty_pem4f.oem4f                  2598    8177      9496   
    +--+----------------------------------+-------+---------+---------+
       Total:                             2598    8177      9496   
                                                                   
    ../MotorLib.lib
       motorlib.obj                       1708    196       112    
    +--+----------------------------------+-------+---------+---------+
       Total:                             1708    196       112    
                                                                   
    C:/ti/tirtos_tivac_2_16_00_08/products/tidrivers_tivac_2_16_00_08/packages/ti/drivers/lib/drivers_tivaware.aem4f
       UARTTiva.oem4f                     2262    116       0      
       GPIOTiva.oem4f                     972     156       153    
       PWMTiva.oem4f                      962     32        24     
       I2CTiva.oem4f                      798     28        0      
       PWMTimerTiva.oem4f                 666     32        0      
       UART.oem4f                         128     36        4      
       RingBuf.oem4f                      164     0         0      
       I2C.oem4f                          130     16        4      
       PWM.oem4f                          130     12        4      
    +--+----------------------------------+-------+---------+---------+
       Total:                             6212    428       189    
                                                                   
    C:/ti/tivaware_c_series_2_1_4_178/driverlib/ccs/Debug/driverlib.lib
       sysctl.obj                         750     596       0      
       gpio.obj                           772     144       0      
       timer.obj                          318     0         0      
       adc.obj                            272     0         0      
       uart.obj                           234     0         0      
       interrupt.obj                      104     112       0      
       pwm.obj                            178     0         0      
       i2c.obj                            158     0         0      
       ssi.obj                            106     0         0      
    +--+----------------------------------+-------+---------+---------+
       Total:                             2892    852       0      
                                                                   
    C:/ti/tivaware_c_series_2_1_4_178/grlib/ccs/Debug/grlib.lib
       fontcmss18.obj                     0       2221      0      
       fontcmss18b.obj                    0       2122      0      
       image.obj                          1658    0         32     
       string.obj                         1378    0         0      
       widget.obj                         814     0         365    
       pushbutton.obj                     668     0         0      
       line.obj                           640     0         0      
       canvas.obj                         420     0         0      
       rectangle.obj                      236     0         0      
       context.obj                        206     16        4      
       charmap.obj                        8       0         0      
    +--+----------------------------------+-------+---------+---------+
       Total:                             6028    4359      401    
                                                                   
    C:\Users\shann\Documents\2021\GANGGANGGANG\empty_EK_TM4C1294XL_TI\src\sysbios\sysbios.aem4f
       BIOS.obj                           13790   0         0      
       m3_Hwi_asm.obj                     314     0         0      
       m3_TaskSupport_asm.obj             180     0         0      
       m3_Hwi_asm_switch.obj              118     0         0      
    +--+----------------------------------+-------+---------+---------+
       Total:                             14402   0         0      
                                                                   
    C:\ti\ccs1031\ccs\tools\compiler\ti-cgt-arm_20.2.4.LTS\lib\rtsv7M4_T_le_v4SPD16_eabi.lib
       _printfi.c.obj                     4851    0         0      
       s_exp2.c.obj                       512     4096      0      
       e_pow.c.obj                        2496    48        0      
       mktime.c.obj                       672     96        0      
       fd_add_t2.asm.obj                  438     0         0      
       trgmsg.c.obj                       108     0         288    
       e_sqrt.c.obj                       344     0         0      
       localtim.c.obj                     308     0         36     
       fd_div_t2.asm.obj                  310     0         0      
       asctime.c.obj                      108     152       28     
       s_scalbn.c.obj                     272     0         0      
       fd_cmp_t2.asm.obj                  268     0         0      
       ctype.c.obj                        0       257       0      
       fd_mul_t2.asm.obj                  252     0         0      
       memcpy_t2.asm.obj                  156     0         0      
       ull_div_t2.asm.obj                 150     0         0      
       snprintf.c.obj                     148     0         0      
       memset_t2.asm.obj                  122     0         0      
       fd_tos_t2.asm.obj                  110     0         0      
       ll_div_t2.asm.obj                  110     0         0      
       copy_decompress_lzss.c.obj         104     0         0      
       s_frexp.c.obj                      100     0         0      
       sprintf.c.obj                      98      0         0      
       hostwrite.c.obj                    88      0         0      
       _ltoa.c.obj                        84      0         0      
       atoi.c.obj                         76      0         0      
       cpy_tbl.c.obj                      76      0         0      
       fd_toi_t2.asm.obj                  72      0         0      
       hosttime.c.obj                     72      0         0      
       fd_tou_t2.asm.obj                  68      0         0      
       u_divt2.asm.obj                    64      0         0      
       fs_tod_t2.asm.obj                  56      0         0      
       i_tofd_t2.asm.obj                  46      0         0      
       _lock.c.obj                        26      0         8      
       u_tofd_t2.asm.obj                  32      0         0      
       memccpy.c.obj                      28      0         0      
       s_copysign.c.obj                   26      0         0      
       args_main.c.obj                    24      0         0      
       strchr.c.obj                       22      0         0      
       strcpy.c.obj                       20      0         0      
       strlen.c.obj                       20      0         0      
       wcslen.c.obj                       18      0         0      
       tmzone.c.obj                       0       0         16     
       copy_decompress_none.c.obj         14      0         0      
       time.c.obj                         14      0         0      
       copy_zero_init.c.obj               12      0         0      
       errno.c.obj                        8       0         4      
       hostopen.c.obj                     0       0         8      
       exit.c.obj                         4       0         0      
       stkdepth_vars.c.obj                0       0         4      
       div0.asm.obj                       2       0         0      
    +--+----------------------------------+-------+---------+---------+
       Total:                             13009   4649      392    
                                                                   
    C:\ti\tirtos_tivac_2_16_00_08\products\bios_6_45_01_29\packages\ti\catalog\arm\cortexm4\tiva\ce\lib\Boot.aem4f
       Boot_sysctl.oem4f                  628     452       0      
       Boot.oem4f                         152     0         0      
    +--+----------------------------------+-------+---------+---------+
       Total:                             780     452       0      
                                                                   
    C:\ti\tirtos_tivac_2_16_00_08\products\bios_6_45_01_29\packages\ti\targets\arm\rtsarm\lib\auto_init.aem4f
       auto_init.oem4f                    160     0         0      
    +--+----------------------------------+-------+---------+---------+
       Total:                             160     0         0      
                                                                   
    C:\ti\tirtos_tivac_2_16_00_08\products\bios_6_45_01_29\packages\ti\targets\arm\rtsarm\lib\boot.aem4f
       boot.oem4f                         88      0         0      
    +--+----------------------------------+-------+---------+---------+
       Total:                             88      0         0      
                                                                   
    C:\ti\tirtos_tivac_2_16_00_08\products\bios_6_45_01_29\packages\ti\targets\arm\rtsarm\lib\ti.targets.arm.rtsarm.aem4f
       System.oem4f                       1255    0         0      
       Text.oem4f                         672     0         0      
       Error.oem4f                        524     0         0      
       Core-mem.oem4f                     358     0         0      
       Startup.oem4f                      328     0         0      
       SysMin.oem4f                       248     0         0      
       Core-smem.oem4f                    204     0         0      
       Memory.oem4f                       176     0         0      
       Assert.oem4f                       84      0         0      
       Core-params.oem4f                  70      0         0      
       Core-label.oem4f                   52      0         0      
       Registry.oem4f                     32      0         0      
       Gate.oem4f                         28      0         0      
    +--+----------------------------------+-------+---------+---------+
       Total:                             4031    0         0      
                                                                   
       Stack:                             0       0         768    
       Linker Generated:                  0       1085      0      
    +--+----------------------------------+-------+---------+---------+
       Grand Total:                       65184   20568     21018  


LINKER GENERATED COPY TABLES

__TI_cinit_table @ 00014fa0 records: 3, size/record: 8, table size: 24
	.data: load addr=00014b78, load size=00000409 bytes, run addr=2000420c, run size=00000d18 bytes, compression=lzss
	.bss: load addr=00014f90, load size=00000008 bytes, run addr=20000360, run size=00003eaa bytes, compression=zero_init
	.vecs: load addr=00014f98, load size=00000008 bytes, run addr=20000000, run size=00000360 bytes, compression=zero_init


LINKER GENERATED HANDLER TABLE

__TI_handler_table @ 00014f84 records: 3, size/record: 4, table size: 12
	index: 0, handler: __TI_decompress_lzss
	index: 1, handler: __TI_decompress_none
	index: 2, handler: __TI_zero_init


GLOBAL SYMBOLS: SORTED ALPHABETICALLY BY Name 

address   name                                                                 
-------   ----                                                                 
0000cd2d  ADC0_Init                                                            
0000eeb5  ADCFxn                                                               
0000fdc1  ADCIntClear                                                          
0000fa11  ADCIntEnable                                                         
0000cd7d  ADCSequenceConfigure                                                 
0000f0f9  ADCSequenceDataGet                                                   
0000fb91  ADCSequenceEnable                                                    
0000b135  ADCSequenceStepConfigure                                             
0000b31d  ADCTriggerFxn                                                        
00009379  BMI160Init                                                           
000068c5  C$$EXIT                                                              
0000e0b7  C$$IO$$                                                              
0000f6df  CanvasMsgProc                                                        
0000bae5  DrawDayNight                                                         
0000af2d  DrawTime                                                             
0000fe77  EK_TM4C1294XL_initGPIO                                               
000097f5  EK_TM4C1294XL_initGeneral                                            
0000de01  EK_TM4C1294XL_initI2C                                                
0000cb89  EK_TM4C1294XL_initUART                                               
0000eb09  GPIODirModeSet                                                       
0000a073  GPIOIntClear                                                         
0000fc1f  GPIOIntEnable                                                        
0000fb9f  GPIOIntStatus                                                        
0000cadd  GPIOIntTypeSet                                                       
000075a9  GPIOPadConfigSet                                                     
0000d569  GPIOPinConfigure                                                     
0000a88b  GPIOPinRead                                                          
0000f861  GPIOPinTypeADC                                                       
0000f873  GPIOPinTypeEthernetLED                                               
0000f885  GPIOPinTypeGPIOInput                                                 
0000f427  GPIOPinTypeGPIOOutput                                                
0000f897  GPIOPinTypeI2C                                                       
0000f8a9  GPIOPinTypeI2CSCL                                                    
0000f8bb  GPIOPinTypePWM                                                       
0000f8cd  GPIOPinTypeSSI                                                       
0000f8df  GPIOPinTypeTimer                                                     
0000f8f1  GPIOPinTypeUART                                                      
0000f903  GPIOPinTypeUSBAnalog                                                 
0000f915  GPIOPinTypeUSBDigital                                                
0000fef1  GPIOPinWrite                                                         
000148d0  GPIOTiva_config                                                      
0000eed5  GPIO_clearInt                                                        
0000e4cd  GPIO_enableInt                                                       
0000bf55  GPIO_hwiIntFxn                                                       
0000aa55  GPIO_init                                                            
0000e4fd  GPIO_read                                                            
0000cdcd  GPIO_setCallback                                                     
00006ce1  GPIO_setConfig                                                       
0000ce1d  GPIO_toggle                                                          
0000ce6d  GPIO_write                                                           
0000bdbd  GrContextClipRegionSet                                               
0000fef7  GrContextFontSet                                                     
0000bb4d  GrContextInit                                                        
0000943b  GrDefaultStringRenderer                                              
0000e97b  GrFontBaselineGet                                                    
0000f117  GrFontCodepageGet                                                    
0000ee09  GrFontGlyphDataGet                                                   
00003ced  GrFontGlyphRender                                                    
0000e9a7  GrFontHeightGet                                                      
0000ec29  GrFontInfoGet                                                        
0000fbad  GrImageDraw                                                          
000082e1  GrLineDraw                                                           
0000d7f1  GrLineDrawH                                                          
0000d837  GrLineDrawV                                                          
0000fe7f  GrMapISO8859_1_Unicode                                               
0000be23  GrRectDraw                                                           
0000ad99  GrRectFill                                                           
0000f5c1  GrStringDraw                                                         
0000e8f1  GrStringNextCharGet                                                  
0000bbb5  GrStringWidthGet                                                     
0000d5b1  HOSTtime                                                             
0000c97d  HOSTwrite                                                            
000091f1  HallFxn                                                              
00001afd  I2CMasterControl                                                     
000026a5  I2CMasterDataGet                                                     
00004bd5  I2CMasterDataPut                                                     
0000fdcb  I2CMasterDisable                                                     
0000fdd5  I2CMasterEnable                                                      
0000f5d7  I2CMasterErr                                                         
0000d0a1  I2CMasterInitExpClk                                                  
0000fe87  I2CMasterIntClear                                                    
0000fefd  I2CMasterIntDisable                                                  
0000ff03  I2CMasterIntEnable                                                   
0000fe8f  I2CMasterSlaveAddrSet                                                
0000e27f  I2CTiva_close                                                        
0000ff09  I2CTiva_control                                                      
00014820  I2CTiva_fxnTable                                                     
0000fddf  I2CTiva_init                                                         
00008f6d  I2CTiva_open                                                         
0000b0b7  I2CTiva_transfer                                                     
0000fa21  I2C_Params_init                                                      
00014858  I2C_config                                                           
000148f8  I2C_defaultParams                                                    
0000dfa9  I2C_init                                                             
0000e52d  I2C_open                                                             
0000fde9  I2C_transfer                                                         
0000bc1d  IntEnable                                                            
000051a9  Kentec320x240x16_SSD2119Init                                         
200043a8  Ki                                                                   
200043a4  Kp                                                                   
0000b405  OPT3001Convert                                                       
0000e91f  OPT3001Enable                                                        
0000be89  OPT3001Read                                                          
0000dbfd  OPT3001ReadI2C                                                       
0000bfb9  OPT3001Test                                                          
0000cebd  OPT3001WriteI2C                                                      
00009a1d  OnDecrease                                                           
0000e55d  OnGraphAcceleration                                                  
0000eb85  OnGraphLight                                                         
0000ec9d  OnGraphPower                                                         
0000ebad  OnGraphSpeed                                                         
0000b475  OnGraphsMain                                                         
00005569  OnGraphsPage                                                         
00009b8d  OnIncrease                                                           
0000d0ed  OnMainMenu                                                           
0000f71d  OnSettingAcceleration                                                
0000f731  OnSettingCurrent                                                     
0000f745  OnSettingSpeed                                                       
0000d139  OnSettingsMain                                                       
000076dd  OnSettingsPage                                                       
00009c41  OnStartMotor                                                         
000095bd  PIControlFxn                                                         
0000f759  PWMClockSet                                                          
0000ee2b  PWMGenConfigure                                                      
0000fc2b  PWMGenDisable                                                        
0000fc37  PWMGenEnable                                                         
0000f927  PWMGenPeriodGet                                                      
0000fa31  PWMGenPeriodSet                                                      
0000f939  PWMOutputInvert                                                      
0000f94b  PWMOutputState                                                       
0000f135  PWMPulseWidthSet                                                     
0001469e  PWMTimerTiva_MAX_MATCH_VALUE                                         
0001469c  PWMTimerTiva_MAX_PRESCALAR_VALUE                                     
0000d4d5  PWMTimerTiva_close                                                   
0000b785  PWMTimerTiva_control                                                 
00014680  PWMTimerTiva_fxnTable                                                
0000fdfd  PWMTimerTiva_getPeriodCounts                                         
0000ff0f  PWMTimerTiva_getPeriodMicroSecs                                      
0000fe9f  PWMTimerTiva_init                                                    
00007c7d  PWMTimerTiva_open                                                    
00009ad5  PWMTimerTiva_setDuty                                                 
000146be  PWMTiva_MAX_MATCH_VALUE                                              
000146bc  PWMTiva_MAX_PRESCALAR                                                
0000ba79  PWMTiva_close                                                        
0000ad11  PWMTiva_control                                                      
000146a0  PWMTiva_fxnTable                                                     
0000ee4d  PWMTiva_getPeriodCounts                                              
0000f153  PWMTiva_getPeriodMicroSecs                                           
0000e58d  PWMTiva_init                                                         
00006755  PWMTiva_open                                                         
00008bb7  PWMTiva_setDuty                                                      
0000fa41  PWM_Params_init                                                      
00014124  PWM_config                                                           
00014938  PWM_defaultParams                                                    
0000dfe1  PWM_init                                                             
0000e5bd  PWM_open                                                             
0000fe07  PWM_setDuty                                                          
00005e41  PinoutSet                                                            
0000e9d3  RectangularButtonMsgProc                                             
0000f95d  RingBuf_construct                                                    
0000dc3d  RingBuf_get                                                          
0000fc43  RingBuf_peek                                                         
0000d8c3  RingBuf_put                                                          
000118bc  SENSITIVITY                                                          
UNDEFED   SHT$$INIT_ARRAY$$Base                                                
UNDEFED   SHT$$INIT_ARRAY$$Limit                                               
0000fea7  SSIBusy                                                              
0000de3d  SSIConfigSetExpClk                                                   
0000f96f  SSIDataGetNonBlocking                                                
0000fe11  SSIDataPut                                                           
0000fe1b  SSIEnable                                                            
000047d5  SysCtlClockFreqSet                                                   
0000ff15  SysCtlDelay                                                          
0000f76d  SysCtlPWMClockSet                                                    
0000e2ed  SysCtlPeripheralEnable                                               
0000e019  SysCtlPeripheralReady                                                
20004150  SysTicks                                                             
20004200  ThresholdAccel                                                       
0000c33d  TimerConfigure                                                       
0000f43f  TimerControlLevel                                                    
0000c9d5  TimerControlTrigger                                                  
0000f459  TimerDisable                                                         
0000fbbb  TimerEnable                                                          
0000f981  TimerLoadSet                                                         
0000f993  TimerMatchSet                                                        
0000f9a5  TimerPrescaleMatchSet                                                
0000f9b7  TimerPrescaleSet                                                     
0000f781  TouchScreenCallbackSet                                               
000081d5  TouchScreenInit                                                      
000062f5  TouchScreenIntHandler                                                
0000fe25  UARTCharGet                                                          
0000fbc9  UARTCharGetNonBlocking                                               
0000fe2f  UARTCharPut                                                          
0000fbd7  UARTCharPutNonBlocking                                               
0000d909  UARTConfigSetExpClk                                                  
0000eef5  UARTDisable                                                          
0000f795  UARTEnable                                                           
0000ff1b  UARTFIFOLevelSet                                                     
0000fc4f  UARTFlowControlSet                                                   
00004dcd  UARTIntClear                                                         
0000fe39  UARTIntDisable                                                       
0000feaf  UARTIntEnable                                                        
0000fe43  UARTIntStatus                                                        
0000ff21  UARTRxErrorClear                                                     
0000feb7  UARTRxErrorGet                                                       
0000d185  UARTTiva_close                                                       
0000aae1  UARTTiva_control                                                     
0001450c  UARTTiva_fxnTable                                                    
0000fc5b  UARTTiva_init                                                        
000043c5  UARTTiva_open                                                        
0000dc7d  UARTTiva_read                                                        
0000e2b5  UARTTiva_readCancel                                                  
0000a62f  UARTTiva_readPolling                                                 
0000a7f7  UARTTiva_write                                                       
0000cf0d  UARTTiva_writeCancel                                                 
0000dbbb  UARTTiva_writePolling                                                
0000f471  UART_Params_init                                                     
00014584  UART_config                                                          
000145a8  UART_defaultParams                                                   
0000e051  UART_init                                                            
0000e5ed  UART_open                                                            
0000f171  WidgetAdd                                                            
0000590d  WidgetDefaultMsgProc                                                 
00008e85  WidgetMessageQueueAdd                                                
0000c01d  WidgetMessageQueueProcess                                            
00009cf5  WidgetMessageSendPostOrder                                           
0000c521  WidgetMessageSendPreOrder                                            
0000f7a9  WidgetMutexGet                                                       
0000ff27  WidgetMutexPut                                                       
0000f1ad  WidgetPointerMessage                                                 
0000d1d1  WidgetRemove                                                         
00000000  __ASM__                                                              
20003b98  __CIOBUF_                                                            
00000078  __ISA__                                                              
0000008b  __PLAT__                                                             
20005228  __STACK_END                                                          
00000300  __STACK_SIZE                                                         
000000ac  __TARG__                                                             
00014fa0  __TI_CINIT_Base                                                      
00014fb8  __TI_CINIT_Limit                                                     
00014f84  __TI_Handler_Table_Base                                              
00014f90  __TI_Handler_Table_Limit                                             
0000a31d  __TI_auto_init                                                       
0000bd55  __TI_decompress_lzss                                                 
0000fbf3  __TI_decompress_none                                                 
0000cbdd  __TI_ltoa                                                            
ffffffff  __TI_pprof_out_hndl                                                  
00000041  __TI_printfi                                                         
ffffffff  __TI_prof_data_size                                                  
ffffffff  __TI_prof_data_start                                                 
0000e321  __TI_readmsg                                                         
00014b78  __TI_static_base__                                                   
0000e089  __TI_writemsg                                                        
0000fc81  __TI_zero_init                                                       
000000d2  __TRDR__                                                             
0000ae1f  __aeabi_cdcmpeq                                                      
0000ae1f  __aeabi_cdcmple                                                      
0000aea5  __aeabi_cdrcmple                                                     
0000b637  __aeabi_d2f                                                          
0000d689  __aeabi_d2iz                                                         
0000d995  __aeabi_d2uiz                                                        
00005c93  __aeabi_dadd                                                         
0000733d  __aeabi_ddiv                                                         
000085ed  __aeabi_dmul                                                         
00005c89  __aeabi_dsub                                                         
0000fec1  __aeabi_errno_addr                                                   
0000e0c1  __aeabi_f2d                                                          
0000e94d  __aeabi_i2d                                                          
00005e3f  __aeabi_idiv0                                                        
00005e3f  __aeabi_ldiv0                                                        
0000b6a5  __aeabi_ldivmod                                                      
0000b229  __aeabi_memclr                                                       
0000b229  __aeabi_memclr4                                                      
0000b229  __aeabi_memclr8                                                      
0000a45d  __aeabi_memcpy                                                       
0000a45d  __aeabi_memcpy4                                                      
0000a45d  __aeabi_memcpy8                                                      
0000b22b  __aeabi_memset                                                       
0000b22b  __aeabi_memset4                                                      
0000b22b  __aeabi_memset8                                                      
0000ef55  __aeabi_ui2d                                                         
0000dcfd  __aeabi_uidiv                                                        
0000dcfd  __aeabi_uidivmod                                                     
0000a761  __aeabi_uldivmod                                                     
ffffffff  __binit__                                                            
ffffffff  __c_args__                                                           
00007475  __localtime32                                                        
00003309  __mktime32                                                           
20004f28  __stack                                                              
20000000  __start___llvm_prf_cnts                                              
20000000  __stop___llvm_prf_cnts                                               
0000fbe5  __time32                                                             
0000f489  _args_main                                                           
0000c925  _c_int00                                                             
00013af8  _ctypes_                                                             
20004e68  _lock                                                                
00000a8f  _nop                                                                 
0000fc69  _register_lock                                                       
0000fc75  _register_unlock                                                     
20004e40  _tz                                                                  
20004e6c  _unlock                                                              
000068c5  abort                                                                
0000f4d1  accelEStopIntterupt                                                  
0000ab6d  accelLimitFxn                                                        
0000d641  accelThreshold                                                       
20004154  accel_avg                                                            
20004158  accel_mag                                                            
2000415c  acceleration                                                         
200040cc  accelerationBuffer                                                   
20004160  acceleration_avg                                                     
2000438c  acceleration_sum                                                     
20004164  adc0                                                                 
200043c4  adc_test                                                             
0000b7f1  asctime                                                              
0000d21d  atoi                                                                 
20004118  av                                                                   
ffffffff  binit                                                                
20003e9c  clkSensorParams                                                      
20003ec0  clockAccelerationStruct                                              
20003ee4  clockLightStruct                                                     
20003f08  clockUpdateGraph                                                     
20003f2c  clockUpdateTime                                                      
200043ac  clock_count                                                          
20004380  clock_time_mins                                                      
20004384  clock_time_secs                                                      
0000d269  copy_in                                                              
0000f33d  copysign                                                             
0000f33d  copysignl                                                            
20004168  current                                                              
2000416c  data_Graph                                                           
2000437c  deltaPos                                                             
20004170  delta_rpm                                                            
20004174  delta_time                                                           
000016c7  disableMotor                                                         
00001f31  drawGraphPoint                                                       
0000d2b5  drawSettingValue                                                     
200043c0  dummy                                                                
20004201  e_event                                                              
20004202  e_stop                                                               
20003e40  eb                                                                   
000016b9  enableMotor                                                          
20004f04  errno                                                                
20004178  error                                                                
2000417c  evtHandle                                                            
200040e0  evtStruct                                                            
000049d5  exp2                                                                 
000049d5  exp2l                                                                
000086e9  filterFxn                                                            
0000c081  frexp                                                                
0000c081  frexpl                                                               
20004084  gHwiprms                                                             
20004203  g_accelerationLimit                                                  
20004180  g_currentLimit                                                       
20004184  g_drawingGraph                                                       
20004f1c  g_i16TouchMin                                                        
200041fc  g_i16TouchX                                                          
200041fe  g_i16TouchY                                                          
20004188  g_motorSpeed                                                         
2000418c  g_numPlotOverflow                                                    
20004190  g_numPlotPoints                                                      
20004194  g_pi32ParmSet                                                        
0001483c  g_pi32TouchParameters                                                
00014908  g_psDefaultCodePointMapTable                                         
2000419c  g_sCurrentPanel                                                      
00013bfc  g_sFontCmss18                                                        
00013cc4  g_sFontCmss18b                                                       
20004a0c  g_sGraph                                                             
200043d8  g_sGraphAcceleration                                                 
20004428  g_sGraphBack                                                         
20004478  g_sGraphExit                                                         
200044c8  g_sGraphLight                                                        
20004518  g_sGraphOption                                                       
20004a4c  g_sGraphPage                                                         
20004568  g_sGraphPower                                                        
200045b8  g_sGraphSpeed                                                        
20004608  g_sGraphTitle                                                        
20004a8c  g_sGraphsMainPage                                                    
00014534  g_sKentec320x240x16_SSD2119                                          
20004acc  g_sMainPage                                                          
20004658  g_sMotorOption                                                       
20004cd8  g_sRoot                                                              
200046a8  g_sSetOption                                                         
200046f8  g_sSettingAcceleration                                               
20004748  g_sSettingBack                                                       
20004798  g_sSettingCurrent                                                    
200047e8  g_sSettingDecrease                                                   
20004838  g_sSettingExit                                                       
20004888  g_sSettingIncrease                                                   
20004b0c  g_sSettingPage                                                       
200048d8  g_sSettingSpeed                                                      
20004928  g_sSettingTitle                                                      
20004978  g_sSettingValue                                                      
20004b4c  g_sSettingsMainPage                                                  
200041a0  g_ui32SysClock                                                       
200043d4  gain                                                                 
200041a4  gateHwi                                                              
000087e1  getAccelVector                                                       
0000b2a5  getAcceleration                                                      
0000c639  getLight                                                             
000017a5  getMotorLibPWMPeriod                                                 
0000f7bd  getSpeed                                                             
0000fc8d  getState                                                             
20004e70  gpioCallbackFunctions                                                
20004d7c  gpioPinConfigs                                                       
200041ac  graphIntMax                                                          
200041b0  graphIntMin                                                          
20004138  graphMax                                                             
20004140  graphMin                                                             
200041b4  hA                                                                   
200041b8  hB                                                                   
200041bc  hC                                                                   
200041c0  hallA                                                                
200041c4  hallB                                                                
200041c8  hallC                                                                
0000f1e5  heartBeatFxn                                                         
00014944  i2cTivaHWAttrs                                                       
20003d48  i2cTivaObjects                                                       
0000fa51  incrementTime                                                        
00007d91  initAcceleration                                                     
00006e31  initHallABC                                                          
000092b5  initLightTask                                                        
0000646d  initMotor                                                            
000017f9  initMotorLib                                                         
000016d9  initMotorLibPWM                                                      
000094fd  initSensors                                                          
0000d301  initUART                                                             
0000a125  initUI                                                               
00006a2d  initWidgets                                                          
20004394  integral_error                                                       
200043a0  jump                                                                 
00007fb9  ldexp                                                                
00007fb9  ldexpl                                                               
2000409c  lightBuffer                                                          
200041cc  light_i2c                                                            
00007475  localtime                                                            
00007ea5  main                                                                 
20004f08  main_func_sp                                                         
20003fd4  maxTime                                                              
0000f201  memccpy                                                              
0000a45d  memcpy                                                               
0000b231  memset                                                               
20003ff4  minTime                                                              
200043b4  min_per_sysTick                                                      
00003309  mktime                                                               
20004370  motor                                                                
00005ad1  motorFxn                                                             
20003e08  motorLibPWMObjects                                                   
200040b4  motorLibPWMTimerObjects                                              
00014918  motorLibPWMTimerTivaHWAttrs                                          
00014230  motorLibPWMTivaHWAttrs                                               
20004204  motorStartedUI                                                       
20004205  motorState                                                           
20004e3c  onHomePage                                                           
0000fb31  osi_TaskDisable                                                      
0000fac1  osi_start                                                            
200041d0  output                                                               
20004148  parmbuf                                                              
00000a91  pow                                                                  
00000a91  powl                                                                 
20004374  prevMotor                                                            
20004378  prevSysTick                                                          
200041d4  previousPoint                                                        
20004206  print_from_clock                                                     
20004124  pui32ADC0Value                                                       
0000e64d  readABC                                                              
0000dcbd  readI2C                                                              
200043b8  rotation                                                             
20004388  rpm_actual                                                           
200041d8  rpm_avg                                                              
20004398  rpm_desired                                                          
200041dc  rpm_from_UI                                                          
2000439c  rpm_int                                                              
20004390  rpm_prev                                                             
200043b0  rpm_sum                                                              
200043bc  rpm_sum_c                                                            
20004207  running                                                              
20003e70  sContext                                                             
00007fb9  scalbn                                                               
00007fb9  scalbnl                                                              
200041e0  semAccelHandle                                                       
20004030  semAccelStruct                                                       
200041e4  semHandle                                                            
200041e8  semLightHandle                                                       
2000404c  semLightStruct                                                       
20004068  semStruct                                                            
0000fa71  sensorsFxn                                                           
0000ecc1  setAccelThreshold                                                    
00001451  setDuty                                                              
0000ef75  setSpeed                                                             
0000fc99  set_estop                                                            
0000c0e5  setupLightSensor                                                     
200043d0  shunt                                                                
0000d34d  snprintf                                                             
0000dd3d  sprintf                                                              
00006b89  sqrt                                                                 
00006b89  sqrtl                                                                
0000e0f9  startMotor                                                           
0000c3fd  statesFxn                                                            
200043cc  stepVoltage                                                          
0000165f  stopMotor                                                            
0000f5ed  strchr                                                               
0000f7d1  strcpy                                                               
0000f7e5  strlen                                                               
20004208  success                                                              
0000fa81  swiAcceleration                                                      
0000fa91  swiLight                                                             
200041ec  t                                                                    
20002560  taskAccelStack                                                       
00008ca9  taskAcceleration                                                     
0000c45d  taskLight                                                            
20001560  taskLightStack                                                       
000143ec  ti_catalog_arm_cortexm4_tiva_ce_Boot_A_mustNotUseEnhancedClockMode__C
00014980  ti_catalog_arm_cortexm4_tiva_ce_Boot_Module__diagsEnabled__C         
00014984  ti_catalog_arm_cortexm4_tiva_ce_Boot_Module__diagsIncluded__C        
00014988  ti_catalog_arm_cortexm4_tiva_ce_Boot_Module__diagsMask__C            
000118ba  ti_catalog_arm_cortexm4_tiva_ce_Boot_Module__id__C                   
0000fa01  ti_catalog_arm_cortexm4_tiva_ce_Boot_init__I                         
000045d1  ti_catalog_arm_cortexm4_tiva_ce_Boot_sysCtlClockFreqSetI__I          
0000a6c9  ti_catalog_arm_cortexm4_tiva_ce_Boot_sysCtlClockFreqSet__E           
20004d58  ti_sysbios_BIOS_Module__state__V                                     
0000f38b  ti_sysbios_BIOS_RtsGateProxy_Handle__label__S                        
0000ed75  ti_sysbios_BIOS_RtsGateProxy_Object__delete__S                       
000071fd  ti_sysbios_BIOS_RtsGateProxy_enter__E                                
00007925  ti_sysbios_BIOS_RtsGateProxy_leave__E                                
0000ff79  ti_sysbios_BIOS_RtsGateProxy_query__E                                
0000e67d  ti_sysbios_BIOS_atExitFunc__I                                        
0000ece5  ti_sysbios_BIOS_errorRaiseHook__I                                    
0000f603  ti_sysbios_BIOS_exitFunc__I                                          
0000faa1  ti_sysbios_BIOS_getCpuFreq__E                                        
000062f3  ti_sysbios_BIOS_nullFunc__I                                          
0000ed09  ti_sysbios_BIOS_registerRTSLock__I                                   
0000ed2d  ti_sysbios_BIOS_removeRTSLock__I                                     
0000ef95  ti_sysbios_BIOS_rtsLock__I                                           
0000f4e9  ti_sysbios_BIOS_rtsUnlock__I                                         
0000fab1  ti_sysbios_BIOS_setThreadType__E                                     
0000ed51  ti_sysbios_BIOS_startFunc__I                                         
0000fac1  ti_sysbios_BIOS_start__E                                             
20004b8c  ti_sysbios_family_arm_lm4_Timer_Module_State_0_device__A             
20004d9c  ti_sysbios_family_arm_lm4_Timer_Module_State_0_handles__A            
0000f501  ti_sysbios_family_arm_lm4_Timer_Module__startupDone__F               
0000f501  ti_sysbios_family_arm_lm4_Timer_Module__startupDone__S               
20004e50  ti_sysbios_family_arm_lm4_Timer_Module__state__V                     
0000c149  ti_sysbios_family_arm_lm4_Timer_Module_startup__E                    
20004bcc  ti_sysbios_family_arm_lm4_Timer_Object__table__V                     
0001498c  ti_sysbios_family_arm_lm4_Timer_enableFunc__C                        
0000a1d1  ti_sysbios_family_arm_lm4_Timer_enableTimers__I                      
0000a079  ti_sysbios_family_arm_lm4_Timer_enableTiva__I                        
0000fca9  ti_sysbios_family_arm_lm4_Timer_getAvailMask__E                      
0000fcb9  ti_sysbios_family_arm_lm4_Timer_getMaxTicks__E                       
0000d9d9  ti_sysbios_family_arm_lm4_Timer_isrStub__E                           
0000fed1  ti_sysbios_family_arm_lm4_Timer_masterDisable__I                     
00008d95  ti_sysbios_family_arm_lm4_Timer_masterEnable__I                      
00014990  ti_sysbios_family_arm_lm4_Timer_numTimerDevices__C                   
0000d399  ti_sysbios_family_arm_lm4_Timer_setAvailMask__E                      
00007929  ti_sysbios_family_arm_lm4_Timer_start__E                             
00014994  ti_sysbios_family_arm_lm4_Timer_startupNeeded__C                     
0000dd81  ti_sysbios_family_arm_lm4_Timer_startup__E                           
0000e6b1  ti_sysbios_family_arm_lm4_Timer_stop__E                              
0000ee71  ti_sysbios_family_arm_lm4_Timer_write__I                             
00014998  ti_sysbios_family_arm_m3_Hwi_E_NMI__C                                
0001499c  ti_sysbios_family_arm_m3_Hwi_E_alreadyDefined__C                     
000149a0  ti_sysbios_family_arm_m3_Hwi_E_busFault__C                           
000149a4  ti_sysbios_family_arm_m3_Hwi_E_debugMon__C                           
000149a8  ti_sysbios_family_arm_m3_Hwi_E_hardFault__C                          
000149ac  ti_sysbios_family_arm_m3_Hwi_E_memFault__C                           
000149b0  ti_sysbios_family_arm_m3_Hwi_E_noIsr__C                              
000149b4  ti_sysbios_family_arm_m3_Hwi_E_reserved__C                           
000149b8  ti_sysbios_family_arm_m3_Hwi_E_svCall__C                             
000149bc  ti_sysbios_family_arm_m3_Hwi_E_usageFault__C                         
0000f357  ti_sysbios_family_arm_m3_Hwi_Handle__label__S                        
0000e359  ti_sysbios_family_arm_m3_Hwi_Instance_finalize__E                    
0000a891  ti_sysbios_family_arm_m3_Hwi_Instance_init__E                        
20004d06  ti_sysbios_family_arm_m3_Hwi_Module_State_0_excActive__A             
20004f0c  ti_sysbios_family_arm_m3_Hwi_Module_State_0_excContext__A            
20004f10  ti_sysbios_family_arm_m3_Hwi_Module_State_0_excStack__A              
00013bfa  ti_sysbios_family_arm_m3_Hwi_Module__id__C                           
20004e78  ti_sysbios_family_arm_m3_Hwi_Module__root__V                         
0000f519  ti_sysbios_family_arm_m3_Hwi_Module__startupDone__F                  
0000f519  ti_sysbios_family_arm_m3_Hwi_Module__startupDone__S                  
20004c44  ti_sysbios_family_arm_m3_Hwi_Module__state__V                        
0000cfb1  ti_sysbios_family_arm_m3_Hwi_Module_startup__E                       
000149c0  ti_sysbios_family_arm_m3_Hwi_NUM_INTERRUPTS__C                       
000146c0  ti_sysbios_family_arm_m3_Hwi_Object__DESC__C                         
00014480  ti_sysbios_family_arm_m3_Hwi_Object__PARAMS__C                       
000149c4  ti_sysbios_family_arm_m3_Hwi_Object__count__C                        
0000b85d  ti_sysbios_family_arm_m3_Hwi_Object__create__S                       
0000efb5  ti_sysbios_family_arm_m3_Hwi_Object__delete__S                       
0000f21d  ti_sysbios_family_arm_m3_Hwi_Object__destruct__S                     
0000f7f9  ti_sysbios_family_arm_m3_Hwi_Object__get__S                          
20004c78  ti_sysbios_family_arm_m3_Hwi_Object__table__V                        
0000fcc5  ti_sysbios_family_arm_m3_Hwi_Params__init__S                         
000149c8  ti_sysbios_family_arm_m3_Hwi_ccr__C                                  
0000ca2d  ti_sysbios_family_arm_m3_Hwi_construct                               
0000c1ad  ti_sysbios_family_arm_m3_Hwi_create                                  
00009735  ti_sysbios_family_arm_m3_Hwi_destruct                                
0000fcd1  ti_sysbios_family_arm_m3_Hwi_disableFxn__E                           
0000d6d1  ti_sysbios_family_arm_m3_Hwi_disableInterrupt__E                     
0000c211  ti_sysbios_family_arm_m3_Hwi_dispatchC__I                            
20003560  ti_sysbios_family_arm_m3_Hwi_dispatchTable                           
000089d1  ti_sysbios_family_arm_m3_Hwi_dispatch__I                             
0000fed9  ti_sysbios_family_arm_m3_Hwi_doSwiRestore__I                         
0000ff31  ti_sysbios_family_arm_m3_Hwi_doTaskRestore__I                        
0000d719  ti_sysbios_family_arm_m3_Hwi_enableInterrupt__E                      
000065e1  ti_sysbios_family_arm_m3_Hwi_excBusFault__I                          
00009679  ti_sysbios_family_arm_m3_Hwi_excDebugMon__I                          
00001b01  ti_sysbios_family_arm_m3_Hwi_excDumpRegs__I                          
0000efd5  ti_sysbios_family_arm_m3_Hwi_excHandlerAsm__I                        
000149cc  ti_sysbios_family_arm_m3_Hwi_excHandlerFunc__C                       
00004bd9  ti_sysbios_family_arm_m3_Hwi_excHandlerMax__I                        
0000eff9  ti_sysbios_family_arm_m3_Hwi_excHandler__I                           
00009739  ti_sysbios_family_arm_m3_Hwi_excHardFault__I                         
00014960  ti_sysbios_family_arm_m3_Hwi_excHookFuncs__A                         
000149d0  ti_sysbios_family_arm_m3_Hwi_excHookFuncs__C                         
00006f79  ti_sysbios_family_arm_m3_Hwi_excMemFault__I                          
0000e391  ti_sysbios_family_arm_m3_Hwi_excNmi__I                               
0000e131  ti_sysbios_family_arm_m3_Hwi_excNoIsr__I                             
0000d761  ti_sysbios_family_arm_m3_Hwi_excReserved__I                          
0000de79  ti_sysbios_family_arm_m3_Hwi_excSvCall__I                            
000068c9  ti_sysbios_family_arm_m3_Hwi_excUsageFault__I                        
0000da21  ti_sysbios_family_arm_m3_Hwi_getStackInfo__E                         
0000a929  ti_sysbios_family_arm_m3_Hwi_initNVIC__E                             
0000ca85  ti_sysbios_family_arm_m3_Hwi_initStacks__E                           
000149d4  ti_sysbios_family_arm_m3_Hwi_nullIsrFunc__C                          
e000e000  ti_sysbios_family_arm_m3_Hwi_nvic                                    
0000ec4f  ti_sysbios_family_arm_m3_Hwi_pendSV__I                               
0000afb1  ti_sysbios_family_arm_m3_Hwi_postInit__I                             
000149d8  ti_sysbios_family_arm_m3_Hwi_priGroup__C                             
20000000  ti_sysbios_family_arm_m3_Hwi_ramVectors                              
00000000  ti_sysbios_family_arm_m3_Hwi_resetVectors                            
0000ff39  ti_sysbios_family_arm_m3_Hwi_restoreFxn__E                           
0000ec73  ti_sysbios_family_arm_m3_Hwi_return                                  
0000fee1  ti_sysbios_family_arm_m3_Hwi_startup__E                              
0000f811  ti_sysbios_family_arm_m3_Hwi_switchFromBootStack__E                  
00009e5d  ti_sysbios_family_arm_m3_TaskSupport_Module__startupDone__S          
0000abf9  ti_sysbios_family_arm_m3_TaskSupport_buildTaskStack                  
0000fce1  ti_sysbios_family_arm_m3_TaskSupport_checkStack__E                   
0000fcf1  ti_sysbios_family_arm_m3_TaskSupport_getStackAlignment__E            
0000fad1  ti_sysbios_family_arm_m3_TaskSupport_glue                            
000149dc  ti_sysbios_family_arm_m3_TaskSupport_stackAlignment__C               
0000e6e1  ti_sysbios_family_arm_m3_TaskSupport_start__E                        
0000f531  ti_sysbios_family_arm_m3_TaskSupport_swap__E                         
0000f18f  ti_sysbios_family_xxx_Hwi_switchAndRunFunc                           
0000f371  ti_sysbios_gates_GateHwi_Handle__label__S                            
0000ff89  ti_sysbios_gates_GateHwi_Instance_init__E                            
000145cc  ti_sysbios_gates_GateHwi_Module__FXNS__C                             
20004e80  ti_sysbios_gates_GateHwi_Module__root__V                             
000146e0  ti_sysbios_gates_GateHwi_Object__DESC__C                             
00014870  ti_sysbios_gates_GateHwi_Object__PARAMS__C                           
0000e711  ti_sysbios_gates_GateHwi_Object__create__S                           
0000f019  ti_sysbios_gates_GateHwi_Object__delete__S                           
20004f14  ti_sysbios_gates_GateHwi_Object__table__V                            
0000fcfd  ti_sysbios_gates_GateHwi_Params__init__S                             
0000e741  ti_sysbios_gates_GateHwi_create                                      
0000fd09  ti_sysbios_gates_GateHwi_enter__E                                    
0000ff41  ti_sysbios_gates_GateHwi_leave__E                                    
0000ff71  ti_sysbios_gates_GateHwi_query__E                                    
000149e0  ti_sysbios_gates_GateMutex_A_badContext__C                           
0000f38b  ti_sysbios_gates_GateMutex_Handle__label__S                          
000149e4  ti_sysbios_gates_GateMutex_Instance_State_sem__O                     
0000fae1  ti_sysbios_gates_GateMutex_Instance_finalize__E                      
0000f239  ti_sysbios_gates_GateMutex_Instance_init__E                          
000145f0  ti_sysbios_gates_GateMutex_Module__FXNS__C                           
000149e8  ti_sysbios_gates_GateMutex_Module__diagsEnabled__C                   
000149ec  ti_sysbios_gates_GateMutex_Module__diagsIncluded__C                  
000149f0  ti_sysbios_gates_GateMutex_Module__diagsMask__C                      
00013eea  ti_sysbios_gates_GateMutex_Module__id__C                             
20004e88  ti_sysbios_gates_GateMutex_Module__root__V                           
00014700  ti_sysbios_gates_GateMutex_Object__DESC__C                           
00014888  ti_sysbios_gates_GateMutex_Object__PARAMS__C                         
0000e771  ti_sysbios_gates_GateMutex_Object__create__S                         
0000ed75  ti_sysbios_gates_GateMutex_Object__delete__S                         
20004c0c  ti_sysbios_gates_GateMutex_Object__table__V                          
00009da9  ti_sysbios_gates_GateMutex_enter__E                                  
0000f549  ti_sysbios_gates_GateMutex_leave__E                                  
0000ff79  ti_sysbios_gates_GateMutex_query__E                                  
000149f4  ti_sysbios_hal_Hwi_E_stackOverflow__C                                
0000f357  ti_sysbios_hal_Hwi_HwiProxy_Handle__label__S                         
0000f519  ti_sysbios_hal_Hwi_HwiProxy_Module__startupDone__S                   
0000faf1  ti_sysbios_hal_Hwi_HwiProxy_Object__create__S                        
0000efb5  ti_sysbios_hal_Hwi_HwiProxy_Object__delete__S                        
0000fcc5  ti_sysbios_hal_Hwi_HwiProxy_Params__init__S                          
0000f255  ti_sysbios_hal_Hwi_HwiProxy_create                                   
0000a1cd  ti_sysbios_hal_Hwi_HwiProxy_delete                                   
0000d6d1  ti_sysbios_hal_Hwi_HwiProxy_disableInterrupt__E                      
0000fcd1  ti_sysbios_hal_Hwi_HwiProxy_disable__E                               
0000d719  ti_sysbios_hal_Hwi_HwiProxy_enableInterrupt__E                       
0000da21  ti_sysbios_hal_Hwi_HwiProxy_getStackInfo__E                          
0000ff39  ti_sysbios_hal_Hwi_HwiProxy_restore__E                               
0000fee1  ti_sysbios_hal_Hwi_HwiProxy_startup__E                               
0000f811  ti_sysbios_hal_Hwi_HwiProxy_switchFromBootStack__E                   
0000fe59  ti_sysbios_hal_Hwi_Instance_finalize__E                              
0000ebd9  ti_sysbios_hal_Hwi_Instance_init__E                                  
00014b58  ti_sysbios_hal_Hwi_Module__id__C                                     
20004e90  ti_sysbios_hal_Hwi_Module__root__V                                   
0000f9c9  ti_sysbios_hal_Hwi_Module_startup__E                                 
00014720  ti_sysbios_hal_Hwi_Object__DESC__C                                   
000144e0  ti_sysbios_hal_Hwi_Object__PARAMS__C                                 
0000fd15  ti_sysbios_hal_Hwi_Params__init__S                                   
0000e3c9  ti_sysbios_hal_Hwi_checkStack                                        
0000c275  ti_sysbios_hal_Hwi_create                                            
0000d6d1  ti_sysbios_hal_Hwi_disableInterrupt__E                               
0000d719  ti_sysbios_hal_Hwi_enableInterrupt__E                                
0000da21  ti_sysbios_hal_Hwi_getStackInfo__E                                   
0000e499  ti_sysbios_hal_Hwi_initStack                                         
0000fee1  ti_sysbios_hal_Hwi_startup__E                                        
0000f811  ti_sysbios_hal_Hwi_switchFromBootStack__E                            
000149f8  ti_sysbios_heaps_HeapMem_A_align__C                                  
000149fc  ti_sysbios_heaps_HeapMem_A_heapSize__C                               
00014a00  ti_sysbios_heaps_HeapMem_A_invalidFree__C                            
00014a04  ti_sysbios_heaps_HeapMem_A_zeroBlock__C                              
00014a08  ti_sysbios_heaps_HeapMem_E_memory__C                                 
0000f3a5  ti_sysbios_heaps_HeapMem_Handle__label__S                            
20002d60  ti_sysbios_heaps_HeapMem_Instance_State_0_buf__A                     
00007201  ti_sysbios_heaps_HeapMem_Instance_init__E                            
0000f38b  ti_sysbios_heaps_HeapMem_Module_GateProxy_Handle__label__S           
0000ed75  ti_sysbios_heaps_HeapMem_Module_GateProxy_Object__delete__S          
0000a925  ti_sysbios_heaps_HeapMem_Module_GateProxy_enter__E                   
0000a9bd  ti_sysbios_heaps_HeapMem_Module_GateProxy_leave__E                   
0000ff79  ti_sysbios_heaps_HeapMem_Module_GateProxy_query__E                   
0001455c  ti_sysbios_heaps_HeapMem_Module__FXNS__C                             
00014a0c  ti_sysbios_heaps_HeapMem_Module__diagsEnabled__C                     
00014a10  ti_sysbios_heaps_HeapMem_Module__diagsIncluded__C                    
00014a14  ti_sysbios_heaps_HeapMem_Module__diagsMask__C                        
00014a18  ti_sysbios_heaps_HeapMem_Module__gateObj__C                          
00014b5a  ti_sysbios_heaps_HeapMem_Module__id__C                               
20004e98  ti_sysbios_heaps_HeapMem_Module__root__V                             
00014740  ti_sysbios_heaps_HeapMem_Object__DESC__C                             
00014614  ti_sysbios_heaps_HeapMem_Object__PARAMS__C                           
00014a1c  ti_sysbios_heaps_HeapMem_Object__count__C                            
0000e7a1  ti_sysbios_heaps_HeapMem_Object__create__S                           
0000f039  ti_sysbios_heaps_HeapMem_Object__delete__S                           
0000f825  ti_sysbios_heaps_HeapMem_Object__get__S                              
20004e10  ti_sysbios_heaps_HeapMem_Object__table__V                            
00003f41  ti_sysbios_heaps_HeapMem_alloc__E                                    
00003819  ti_sysbios_heaps_HeapMem_free__E                                     
0000d3e9  ti_sysbios_heaps_HeapMem_getStats__E                                 
0000deb9  ti_sysbios_heaps_HeapMem_init__I                                     
0000ff49  ti_sysbios_heaps_HeapMem_isBlocking__E                               
00014a20  ti_sysbios_heaps_HeapMem_reqAlign__C                                 
00014a24  ti_sysbios_knl_Clock_A_badThreadType__C                              
0000a279  ti_sysbios_knl_Clock_Instance_finalize__E                            
00007a49  ti_sysbios_knl_Clock_Instance_init__E                                
00014a28  ti_sysbios_knl_Clock_Module_State_clockQ__O                          
00014a2c  ti_sysbios_knl_Clock_Module__diagsEnabled__C                         
00014a30  ti_sysbios_knl_Clock_Module__diagsIncluded__C                        
00014a34  ti_sysbios_knl_Clock_Module__diagsMask__C                            
00014b5c  ti_sysbios_knl_Clock_Module__id__C                                   
20004ea0  ti_sysbios_knl_Clock_Module__root__V                                 
20004d08  ti_sysbios_knl_Clock_Module__state__V                                
0000ed99  ti_sysbios_knl_Clock_Module_startup__E                               
00014760  ti_sysbios_knl_Clock_Object__DESC__C                                 
00014638  ti_sysbios_knl_Clock_Object__PARAMS__C                               
0000f059  ti_sysbios_knl_Clock_Object__destruct__S                             
0000fd21  ti_sysbios_knl_Clock_Params__init__S                                 
0000f501  ti_sysbios_knl_Clock_TimerProxy_Module__startupDone__S               
0000b4e5  ti_sysbios_knl_Clock_TimerProxy_getMaxTicks__E                       
0000dd81  ti_sysbios_knl_Clock_TimerProxy_startup__E                           
0000e3fd  ti_sysbios_knl_Clock_construct                                       
0000e169  ti_sysbios_knl_Clock_create                                          
0000c4bd  ti_sysbios_knl_Clock_destruct                                        
0000ea2d  ti_sysbios_knl_Clock_doTick__I                                       
0000fd31  ti_sysbios_knl_Clock_getTicks__E                                     
0000ff91  ti_sysbios_knl_Clock_logTick__E                                      
0000b391  ti_sysbios_knl_Clock_start__E                                        
0000ff51  ti_sysbios_knl_Clock_stop__E                                         
0000b4e9  ti_sysbios_knl_Clock_workFunc__E                                     
00014a38  ti_sysbios_knl_Event_A_badContext__C                                 
00014a3c  ti_sysbios_knl_Event_A_eventInUse__C                                 
00014a40  ti_sysbios_knl_Event_A_nullEventId__C                                
00014a44  ti_sysbios_knl_Event_A_nullEventMasks__C                             
00014a48  ti_sysbios_knl_Event_A_pendTaskDisabled__C                           
00014a4c  ti_sysbios_knl_Event_Instance_State_pendQ__O                         
0000f839  ti_sysbios_knl_Event_Instance_init__E                                
00014a50  ti_sysbios_knl_Event_Module__diagsEnabled__C                         
00014a54  ti_sysbios_knl_Event_Module__diagsIncluded__C                        
00014a58  ti_sysbios_knl_Event_Module__diagsMask__C                            
00014b5e  ti_sysbios_knl_Event_Module__id__C                                   
20004ea8  ti_sysbios_knl_Event_Module__root__V                                 
00014780  ti_sysbios_knl_Event_Object__DESC__C                                 
000148a0  ti_sysbios_knl_Event_Object__PARAMS__C                               
0000ea59  ti_sysbios_knl_Event_construct                                       
0000e7d1  ti_sysbios_knl_Event_pendTimeout__I                                  
000026a9  ti_sysbios_knl_Event_pend__E                                         
000083e9  ti_sysbios_knl_Event_post__E                                         
00014a5c  ti_sysbios_knl_Idle_funcList__A                                      
00014968  ti_sysbios_knl_Idle_funcList__C                                      
0000fc01  ti_sysbios_knl_Idle_loop__E                                          
0000f079  ti_sysbios_knl_Idle_run__E                                           
0000ff59  ti_sysbios_knl_Queue_Instance_init__E                                
20004eb0  ti_sysbios_knl_Queue_Module__root__V                                 
000147a0  ti_sysbios_knl_Queue_Object__DESC__C                                 
000148b8  ti_sysbios_knl_Queue_Object__PARAMS__C                               
0000f271  ti_sysbios_knl_Queue_Object__destruct__S                             
0000fd49  ti_sysbios_knl_Queue_Object__get__S                                  
0000ea85  ti_sysbios_knl_Queue_construct                                       
0000c695  ti_sysbios_knl_Queue_destruct                                        
0000fc11  ti_sysbios_knl_Queue_empty__E                                        
0000f291  ti_sysbios_knl_Queue_put__E                                          
00014a60  ti_sysbios_knl_Semaphore_A_badContext__C                             
00014a64  ti_sysbios_knl_Semaphore_A_noEvents__C                               
00014a68  ti_sysbios_knl_Semaphore_A_overflow__C                               
00014a6c  ti_sysbios_knl_Semaphore_A_pendTaskDisabled__C                       
00014a70  ti_sysbios_knl_Semaphore_Instance_State_pendQ__O                     
0000fb01  ti_sysbios_knl_Semaphore_Instance_finalize__E                        
0000a4f9  ti_sysbios_knl_Semaphore_Instance_init__E                            
00014a74  ti_sysbios_knl_Semaphore_Module__diagsEnabled__C                     
00014a78  ti_sysbios_knl_Semaphore_Module__diagsIncluded__C                    
00014a7c  ti_sysbios_knl_Semaphore_Module__diagsMask__C                        
00014b60  ti_sysbios_knl_Semaphore_Module__id__C                               
20004eb8  ti_sysbios_knl_Semaphore_Module__root__V                             
000147c0  ti_sysbios_knl_Semaphore_Object__DESC__C                             
0001465c  ti_sysbios_knl_Semaphore_Object__PARAMS__C                           
0000f099  ti_sysbios_knl_Semaphore_Object__destruct__S                         
0000fd55  ti_sysbios_knl_Semaphore_Params__init__S                             
0000e801  ti_sysbios_knl_Semaphore_construct                                   
0000c6f5  ti_sysbios_knl_Semaphore_destruct                                    
0000e831  ti_sysbios_knl_Semaphore_pendTimeout__I                              
00003039  ti_sysbios_knl_Semaphore_pend__E                                     
00008d99  ti_sysbios_knl_Semaphore_post__E                                     
0000f3bf  ti_sysbios_knl_Swi_Handle__label__S                                  
200042f0  ti_sysbios_knl_Swi_Module_State_0_readyQ__A                          
20004ddc  ti_sysbios_knl_Swi_Module__state__V                                  
0000ec01  ti_sysbios_knl_Swi_Module_startup__E                                 
00014a80  ti_sysbios_knl_Swi_Object__count__C                                  
0000f84d  ti_sysbios_knl_Swi_Object__get__S                                    
20004ca8  ti_sysbios_knl_Swi_Object__table__V                                  
0000fb11  ti_sysbios_knl_Swi_disable__E                                        
0000da69  ti_sysbios_knl_Swi_post__E                                           
0000b8c9  ti_sysbios_knl_Swi_restoreHwi__E                                     
0000def9  ti_sysbios_knl_Swi_restore__E                                        
0000d439  ti_sysbios_knl_Swi_runLoop__I                                        
0000c699  ti_sysbios_knl_Swi_run__I                                            
0000c6f9  ti_sysbios_knl_Swi_schedule__I                                       
0000ff61  ti_sysbios_knl_Swi_startup__E                                        
00014a84  ti_sysbios_knl_Task_A_badPriority__C                                 
00014a88  ti_sysbios_knl_Task_A_badTaskState__C                                
00014a8c  ti_sysbios_knl_Task_A_badThreadType__C                               
00014a90  ti_sysbios_knl_Task_A_badTimeout__C                                  
00014a94  ti_sysbios_knl_Task_A_noPendElem__C                                  
00014a98  ti_sysbios_knl_Task_A_sleepTaskDisabled__C                           
00014a9c  ti_sysbios_knl_Task_E_spOutOfBounds__C                               
00014aa0  ti_sysbios_knl_Task_E_stackOverflow__C                               
0000f3d9  ti_sysbios_knl_Task_Handle__label__S                                 
20000360  ti_sysbios_knl_Task_Instance_State_0_stack__A                        
20000b60  ti_sysbios_knl_Task_Instance_State_1_stack__A                        
20001360  ti_sysbios_knl_Task_Instance_State_2_stack__A                        
00004191  ti_sysbios_knl_Task_Instance_finalize__E                             
00005911  ti_sysbios_knl_Task_Instance_init__E                                 
20004f18  ti_sysbios_knl_Task_Module_State_0_idleTask__A                       
20004dbc  ti_sysbios_knl_Task_Module_State_0_readyQ__A                         
00014aa4  ti_sysbios_knl_Task_Module_State_inactiveQ__O                        
00014aa8  ti_sysbios_knl_Task_Module__diagsEnabled__C                          
00014aac  ti_sysbios_knl_Task_Module__diagsIncluded__C                         
00014ab0  ti_sysbios_knl_Task_Module__diagsMask__C                             
00014b62  ti_sysbios_knl_Task_Module__id__C                                    
20004ec0  ti_sysbios_knl_Task_Module__root__V                                  
200049c8  ti_sysbios_knl_Task_Module__state__V                                 
0000c759  ti_sysbios_knl_Task_Module_startup__E                                
000147e0  ti_sysbios_knl_Task_Object__DESC__C                                  
000143b0  ti_sysbios_knl_Task_Object__PARAMS__C                                
00014ab4  ti_sysbios_knl_Task_Object__count__C                                 
0000fb21  ti_sysbios_knl_Task_Object__get__S                                   
2000420c  ti_sysbios_knl_Task_Object__table__V                                 
0000fd79  ti_sysbios_knl_Task_Params__init__S                                  
00009e5d  ti_sysbios_knl_Task_SupportProxy_Module__startupDone__S              
0000fce1  ti_sysbios_knl_Task_SupportProxy_checkStack__E                       
0000fcf1  ti_sysbios_knl_Task_SupportProxy_getStackAlignment__E                
0000e6e1  ti_sysbios_knl_Task_SupportProxy_start__E                            
0000f531  ti_sysbios_knl_Task_SupportProxy_swap__E                             
00014ab8  ti_sysbios_knl_Task_allBlockedFunc__C                                
0000d489  ti_sysbios_knl_Task_allBlockedFunction__I                            
00009e61  ti_sysbios_knl_Task_checkStacks__E                                   
0000c7b5  ti_sysbios_knl_Task_create                                           
00014abc  ti_sysbios_knl_Task_defaultStackHeap__C                              
00014ac0  ti_sysbios_knl_Task_defaultStackSize__C                              
0000fb31  ti_sysbios_knl_Task_disable__E                                       
0000f2b1  ti_sysbios_knl_Task_enter__I                                         
0000b559  ti_sysbios_knl_Task_exit__E                                          
00014ac4  ti_sysbios_knl_Task_numConstructedTasks__C                           
0000a9c1  ti_sysbios_knl_Task_postInit__I                                      
0000e1a1  ti_sysbios_knl_Task_processVitalTaskFlag__I                          
0000edc1  ti_sysbios_knl_Task_restoreHwi__E                                    
0000eab1  ti_sysbios_knl_Task_restore__E                                       
0000c4c1  ti_sysbios_knl_Task_schedule__I                                      
0000f561  ti_sysbios_knl_Task_sleepTimeout__I                                  
00004dd1  ti_sysbios_knl_Task_sleep__E                                         
0000c811  ti_sysbios_knl_Task_startCore__E                                     
0000ff81  ti_sysbios_knl_Task_startup__E                                       
0000f53d  ti_sysbios_knl_Task_swapReturn                                       
0000e861  ti_sysbios_knl_Task_unblockI__E                                      
0000fbe5  time                                                                 
20004ef0  triggerThreshold                                                     
200041f0  uart                                                                 
20003f50  uartParams                                                           
000144b0  uartTivaHWAttrs                                                      
200038c0  uartTivaObjects                                                      
20003dc8  uartTivaRingBuffer                                                   
20004209  updateGraph                                                          
0000fd85  updateGraphUI                                                        
00001479  updateMotor                                                          
200040f4  valueText                                                            
200041f4  voltage                                                              
200043c8  vref                                                                 
0000f9db  wcslen                                                               
0000d7a9  writeI2C                                                             
20004e2c  x_graph_start                                                        
20004e28  x_graph_step                                                         
00014ac8  xdc_runtime_Assert_E_assertFailed__C                                 
0000cc85  xdc_runtime_Assert_raise__I                                          
00014acc  xdc_runtime_Core_A_initializedParams__C                              
00014ad0  xdc_runtime_Core_Module__diagsEnabled__C                             
00014ad4  xdc_runtime_Core_Module__diagsIncluded__C                            
00014ad8  xdc_runtime_Core_Module__diagsMask__C                                
00014b64  xdc_runtime_Core_Module__id__C                                       
0000e431  xdc_runtime_Core_assignLabel__I                                      
0000d94f  xdc_runtime_Core_assignParams__I                                     
00009125  xdc_runtime_Core_constructObject__I                                  
000084ed  xdc_runtime_Core_createObject__I                                     
0000beef  xdc_runtime_Core_deleteObject__I                                     
00014adc  xdc_runtime_Error_E_generic__C                                       
00014ae0  xdc_runtime_Error_E_memory__C                                        
00014ae4  xdc_runtime_Error_Module__diagsEnabled__C                            
00014ae8  xdc_runtime_Error_Module__diagsIncluded__C                           
00014aec  xdc_runtime_Error_Module__diagsMask__C                               
00014b66  xdc_runtime_Error_Module__loggerDefined__C                           
00014af0  xdc_runtime_Error_Module__loggerFxn8__C                              
00014af4  xdc_runtime_Error_Module__loggerObj__C                               
20004e3e  xdc_runtime_Error_Module__state__V                                   
0000f579  xdc_runtime_Error_check__E                                           
0000c755  xdc_runtime_Error_getSite__E                                         
0000fd91  xdc_runtime_Error_init__E                                            
00014b68  xdc_runtime_Error_maxDepth__C                                        
00007b65  xdc_runtime_Error_policyDefault__E                                   
00014af8  xdc_runtime_Error_policyFxn__C                                       
00013827  xdc_runtime_Error_policy__C                                          
0000b9a1  xdc_runtime_Error_print__E                                           
00014afc  xdc_runtime_Error_raiseHook__C                                       
0000f2cd  xdc_runtime_Error_raiseX__E                                          
0000daad  xdc_runtime_Error_setX__E                                            
0000fd9d  xdc_runtime_Gate_enterSystem__E                                      
0000fb41  xdc_runtime_Gate_leaveSystem__E                                      
00014b00  xdc_runtime_IGateProvider_Interface__BASE__C                         
00014b04  xdc_runtime_IHeap_Interface__BASE__C                                 
00014b08  xdc_runtime_IModule_Interface__BASE__C                               
00014b0c  xdc_runtime_Log_L_error__C                                           
0000f371  xdc_runtime_Main_Module_GateProxy_Handle__label__S                   
0000f019  xdc_runtime_Main_Module_GateProxy_Object__delete__S                  
0000fcfd  xdc_runtime_Main_Module_GateProxy_Params__init__S                    
0000ff71  xdc_runtime_Main_Module_GateProxy_query__E                           
00014b6a  xdc_runtime_Main_Module__id__C                                       
0000f3a5  xdc_runtime_Memory_HeapProxy_Handle__label__S                        
0000f039  xdc_runtime_Memory_HeapProxy_Object__delete__S                       
0000fe63  xdc_runtime_Memory_HeapProxy_alloc__E                                
0000fe6d  xdc_runtime_Memory_HeapProxy_free__E                                 
00014b6c  xdc_runtime_Memory_Module__id__C                                     
20004f20  xdc_runtime_Memory_Module__state__V                                  
0000ba0d  xdc_runtime_Memory_alloc__E                                          
0000fda9  xdc_runtime_Memory_calloc__E                                         
00014b10  xdc_runtime_Memory_defaultHeapInstance__C                            
0000fb51  xdc_runtime_Memory_free__E                                           
0000fdb5  xdc_runtime_Memory_getMaxDefaultTypeAlign__E                         
0000f2e9  xdc_runtime_Memory_valloc__E                                         
20004ec8  xdc_runtime_Registry_Module__state__V                                
0000f0b9  xdc_runtime_Registry_findById__E                                     
20004ed0  xdc_runtime_Startup_Module__state__V                                 
00000001  xdc_runtime_Startup__EXECFXN__C                                      
00000001  xdc_runtime_Startup__RESETFXN__C                                     
00014b14  xdc_runtime_Startup_execImpl__C                                      
0000d001  xdc_runtime_Startup_exec__E                                          
0000f9ed  xdc_runtime_Startup_exec__I                                          
000148e4  xdc_runtime_Startup_firstFxns__A                                     
00014970  xdc_runtime_Startup_firstFxns__C                                     
00014978  xdc_runtime_Startup_lastFxns__C                                      
00014b18  xdc_runtime_Startup_maxPasses__C                                     
00007473  xdc_runtime_Startup_reset__I                                         
00014928  xdc_runtime_Startup_sfxnRts__A                                       
00014b1c  xdc_runtime_Startup_sfxnRts__C                                       
00014800  xdc_runtime_Startup_sfxnTab__A                                       
00014b20  xdc_runtime_Startup_sfxnTab__C                                       
000088d9  xdc_runtime_Startup_startMods__I                                     
20003160  xdc_runtime_SysMin_Module_State_0_outbuf__A                          
20004e5c  xdc_runtime_SysMin_Module__state__V                                  
0000f0d9  xdc_runtime_SysMin_Module_startup__E                                 
0000e891  xdc_runtime_SysMin_abort__E                                          
00014b24  xdc_runtime_SysMin_bufSize__C                                        
0000f305  xdc_runtime_SysMin_exit__E                                           
00014b6e  xdc_runtime_SysMin_flushAtExit__C                                    
0000daf1  xdc_runtime_SysMin_flush__E                                          
00014b28  xdc_runtime_SysMin_outputFunc__C                                     
0000ee93  xdc_runtime_SysMin_output__I                                         
0000e1d9  xdc_runtime_SysMin_putch__E                                          
0000fb61  xdc_runtime_SysMin_ready__E                                          
0000f371  xdc_runtime_System_Module_GateProxy_Handle__label__S                 
0000f019  xdc_runtime_System_Module_GateProxy_Object__delete__S                
0000fcfd  xdc_runtime_System_Module_GateProxy_Params__init__S                  
0000cfad  xdc_runtime_System_Module_GateProxy_enter__E                         
0000d3e5  xdc_runtime_System_Module_GateProxy_leave__E                         
0000ff71  xdc_runtime_System_Module_GateProxy_query__E                         
20004ed8  xdc_runtime_System_Module_State_0_atexitHandlers__A                  
00014b2c  xdc_runtime_System_Module__gateObj__C                                
20004ee0  xdc_runtime_System_Module__state__V                                  
0000ff67  xdc_runtime_System_Module_startup__E                                 
0000e891  xdc_runtime_System_SupportProxy_abort__E                             
0000f305  xdc_runtime_System_SupportProxy_exit__E                              
0000daf1  xdc_runtime_System_SupportProxy_flush__E                             
0000e1d9  xdc_runtime_System_SupportProxy_putch__E                             
0000fb61  xdc_runtime_System_SupportProxy_ready__E                             
00014b30  xdc_runtime_System_abortFxn__C                                       
000068c5  xdc_runtime_System_abortStd__E                                       
0000f321  xdc_runtime_System_abort__E                                          
0000f3f3  xdc_runtime_System_aprintf__E                                        
0000d435  xdc_runtime_System_aprintf_va__F                                     
0000e211  xdc_runtime_System_atexit__E                                         
0000ec75  xdc_runtime_System_avprintf__E                                       
000029f5  xdc_runtime_System_doPrint__I                                        
00014b34  xdc_runtime_System_exitFxn__C                                        
000068c5  xdc_runtime_System_exitStd__E                                        
0000f591  xdc_runtime_System_exit__E                                           
00014b38  xdc_runtime_System_extendFxn__C                                      
0000daf1  xdc_runtime_System_flush__E                                          
0000b715  xdc_runtime_System_formatNum__I                                      
00014b3c  xdc_runtime_System_maxAtexitHandlers__C                              
00004fc1  xdc_runtime_System_printfExtend__I                                   
0000f40d  xdc_runtime_System_printf__E                                         
0000d485  xdc_runtime_System_printf_va__F                                      
0000e8c1  xdc_runtime_System_processAtExit__E                                  
0000eb33  xdc_runtime_System_putchar__I                                        
0000ede5  xdc_runtime_System_vprintf__E                                        
0000fb71  xdc_runtime_System_vsnprintf__E                                      
00014b70  xdc_runtime_Text_charCnt__C                                          
0000ff98  xdc_runtime_Text_charTab__A                                          
00014b40  xdc_runtime_Text_charTab__C                                          
0000eadd  xdc_runtime_Text_cordText__E                                         
00014b72  xdc_runtime_Text_isLoaded__C                                         
00014b44  xdc_runtime_Text_nameEmpty__C                                        
00014b48  xdc_runtime_Text_nameStatic__C                                       
00014b4c  xdc_runtime_Text_nameUnknown__C                                      
00013d8c  xdc_runtime_Text_nodeTab__A                                          
00014b50  xdc_runtime_Text_nodeTab__C                                          
0000e465  xdc_runtime_Text_printVisFxn__I                                      
0000c86d  xdc_runtime_Text_putLab__E                                           
0000a3bd  xdc_runtime_Text_putMod__E                                           
0000a595  xdc_runtime_Text_putSite__E                                          
00014b74  xdc_runtime_Text_registryModsLastId__C                               
0000f5a9  xdc_runtime_Text_ropeText__E                                         
00014b76  xdc_runtime_Text_unnamedModsLastId__C                                
0000d051  xdc_runtime_Text_visitRope2__I                                       
00014b54  xdc_runtime_Text_visitRopeFxn__C                                     
0000fb81  xdc_runtime_Text_visitRope__I                                        
0000db35  xdc_runtime_Text_xprintf__I                                          
20004e38  y_graph_end                                                          
20004e34  y_graph_max                                                          
20004e30  y_graph_start                                                        
200041f8  y_graph_step                                                         


GLOBAL SYMBOLS: SORTED BY Symbol Address 

address   name                                                                 
-------   ----                                                                 
00000000  __ASM__                                                              
00000000  ti_sysbios_family_arm_m3_Hwi_resetVectors                            
00000001  xdc_runtime_Startup__EXECFXN__C                                      
00000001  xdc_runtime_Startup__RESETFXN__C                                     
00000041  __TI_printfi                                                         
00000078  __ISA__                                                              
0000008b  __PLAT__                                                             
000000ac  __TARG__                                                             
000000d2  __TRDR__                                                             
00000300  __STACK_SIZE                                                         
00000a8f  _nop                                                                 
00000a91  pow                                                                  
00000a91  powl                                                                 
00001451  setDuty                                                              
00001479  updateMotor                                                          
0000165f  stopMotor                                                            
000016b9  enableMotor                                                          
000016c7  disableMotor                                                         
000016d9  initMotorLibPWM                                                      
000017a5  getMotorLibPWMPeriod                                                 
000017f9  initMotorLib                                                         
00001afd  I2CMasterControl                                                     
00001b01  ti_sysbios_family_arm_m3_Hwi_excDumpRegs__I                          
00001f31  drawGraphPoint                                                       
000026a5  I2CMasterDataGet                                                     
000026a9  ti_sysbios_knl_Event_pend__E                                         
000029f5  xdc_runtime_System_doPrint__I                                        
00003039  ti_sysbios_knl_Semaphore_pend__E                                     
00003309  __mktime32                                                           
00003309  mktime                                                               
00003819  ti_sysbios_heaps_HeapMem_free__E                                     
00003ced  GrFontGlyphRender                                                    
00003f41  ti_sysbios_heaps_HeapMem_alloc__E                                    
00004191  ti_sysbios_knl_Task_Instance_finalize__E                             
000043c5  UARTTiva_open                                                        
000045d1  ti_catalog_arm_cortexm4_tiva_ce_Boot_sysCtlClockFreqSetI__I          
000047d5  SysCtlClockFreqSet                                                   
000049d5  exp2                                                                 
000049d5  exp2l                                                                
00004bd5  I2CMasterDataPut                                                     
00004bd9  ti_sysbios_family_arm_m3_Hwi_excHandlerMax__I                        
00004dcd  UARTIntClear                                                         
00004dd1  ti_sysbios_knl_Task_sleep__E                                         
00004fc1  xdc_runtime_System_printfExtend__I                                   
000051a9  Kentec320x240x16_SSD2119Init                                         
00005569  OnGraphsPage                                                         
0000590d  WidgetDefaultMsgProc                                                 
00005911  ti_sysbios_knl_Task_Instance_init__E                                 
00005ad1  motorFxn                                                             
00005c89  __aeabi_dsub                                                         
00005c93  __aeabi_dadd                                                         
00005e3f  __aeabi_idiv0                                                        
00005e3f  __aeabi_ldiv0                                                        
00005e41  PinoutSet                                                            
000062f3  ti_sysbios_BIOS_nullFunc__I                                          
000062f5  TouchScreenIntHandler                                                
0000646d  initMotor                                                            
000065e1  ti_sysbios_family_arm_m3_Hwi_excBusFault__I                          
00006755  PWMTiva_open                                                         
000068c5  C$$EXIT                                                              
000068c5  abort                                                                
000068c5  xdc_runtime_System_abortStd__E                                       
000068c5  xdc_runtime_System_exitStd__E                                        
000068c9  ti_sysbios_family_arm_m3_Hwi_excUsageFault__I                        
00006a2d  initWidgets                                                          
00006b89  sqrt                                                                 
00006b89  sqrtl                                                                
00006ce1  GPIO_setConfig                                                       
00006e31  initHallABC                                                          
00006f79  ti_sysbios_family_arm_m3_Hwi_excMemFault__I                          
000071fd  ti_sysbios_BIOS_RtsGateProxy_enter__E                                
00007201  ti_sysbios_heaps_HeapMem_Instance_init__E                            
0000733d  __aeabi_ddiv                                                         
00007473  xdc_runtime_Startup_reset__I                                         
00007475  __localtime32                                                        
00007475  localtime                                                            
000075a9  GPIOPadConfigSet                                                     
000076dd  OnSettingsPage                                                       
00007925  ti_sysbios_BIOS_RtsGateProxy_leave__E                                
00007929  ti_sysbios_family_arm_lm4_Timer_start__E                             
00007a49  ti_sysbios_knl_Clock_Instance_init__E                                
00007b65  xdc_runtime_Error_policyDefault__E                                   
00007c7d  PWMTimerTiva_open                                                    
00007d91  initAcceleration                                                     
00007ea5  main                                                                 
00007fb9  ldexp                                                                
00007fb9  ldexpl                                                               
00007fb9  scalbn                                                               
00007fb9  scalbnl                                                              
000081d5  TouchScreenInit                                                      
000082e1  GrLineDraw                                                           
000083e9  ti_sysbios_knl_Event_post__E                                         
000084ed  xdc_runtime_Core_createObject__I                                     
000085ed  __aeabi_dmul                                                         
000086e9  filterFxn                                                            
000087e1  getAccelVector                                                       
000088d9  xdc_runtime_Startup_startMods__I                                     
000089d1  ti_sysbios_family_arm_m3_Hwi_dispatch__I                             
00008bb7  PWMTiva_setDuty                                                      
00008ca9  taskAcceleration                                                     
00008d95  ti_sysbios_family_arm_lm4_Timer_masterEnable__I                      
00008d99  ti_sysbios_knl_Semaphore_post__E                                     
00008e85  WidgetMessageQueueAdd                                                
00008f6d  I2CTiva_open                                                         
00009125  xdc_runtime_Core_constructObject__I                                  
000091f1  HallFxn                                                              
000092b5  initLightTask                                                        
00009379  BMI160Init                                                           
0000943b  GrDefaultStringRenderer                                              
000094fd  initSensors                                                          
000095bd  PIControlFxn                                                         
00009679  ti_sysbios_family_arm_m3_Hwi_excDebugMon__I                          
00009735  ti_sysbios_family_arm_m3_Hwi_destruct                                
00009739  ti_sysbios_family_arm_m3_Hwi_excHardFault__I                         
000097f5  EK_TM4C1294XL_initGeneral                                            
00009a1d  OnDecrease                                                           
00009ad5  PWMTimerTiva_setDuty                                                 
00009b8d  OnIncrease                                                           
00009c41  OnStartMotor                                                         
00009cf5  WidgetMessageSendPostOrder                                           
00009da9  ti_sysbios_gates_GateMutex_enter__E                                  
00009e5d  ti_sysbios_family_arm_m3_TaskSupport_Module__startupDone__S          
00009e5d  ti_sysbios_knl_Task_SupportProxy_Module__startupDone__S              
00009e61  ti_sysbios_knl_Task_checkStacks__E                                   
0000a073  GPIOIntClear                                                         
0000a079  ti_sysbios_family_arm_lm4_Timer_enableTiva__I                        
0000a125  initUI                                                               
0000a1cd  ti_sysbios_hal_Hwi_HwiProxy_delete                                   
0000a1d1  ti_sysbios_family_arm_lm4_Timer_enableTimers__I                      
0000a279  ti_sysbios_knl_Clock_Instance_finalize__E                            
0000a31d  __TI_auto_init                                                       
0000a3bd  xdc_runtime_Text_putMod__E                                           
0000a45d  __aeabi_memcpy                                                       
0000a45d  __aeabi_memcpy4                                                      
0000a45d  __aeabi_memcpy8                                                      
0000a45d  memcpy                                                               
0000a4f9  ti_sysbios_knl_Semaphore_Instance_init__E                            
0000a595  xdc_runtime_Text_putSite__E                                          
0000a62f  UARTTiva_readPolling                                                 
0000a6c9  ti_catalog_arm_cortexm4_tiva_ce_Boot_sysCtlClockFreqSet__E           
0000a761  __aeabi_uldivmod                                                     
0000a7f7  UARTTiva_write                                                       
0000a88b  GPIOPinRead                                                          
0000a891  ti_sysbios_family_arm_m3_Hwi_Instance_init__E                        
0000a925  ti_sysbios_heaps_HeapMem_Module_GateProxy_enter__E                   
0000a929  ti_sysbios_family_arm_m3_Hwi_initNVIC__E                             
0000a9bd  ti_sysbios_heaps_HeapMem_Module_GateProxy_leave__E                   
0000a9c1  ti_sysbios_knl_Task_postInit__I                                      
0000aa55  GPIO_init                                                            
0000aae1  UARTTiva_control                                                     
0000ab6d  accelLimitFxn                                                        
0000abf9  ti_sysbios_family_arm_m3_TaskSupport_buildTaskStack                  
0000ad11  PWMTiva_control                                                      
0000ad99  GrRectFill                                                           
0000ae1f  __aeabi_cdcmpeq                                                      
0000ae1f  __aeabi_cdcmple                                                      
0000aea5  __aeabi_cdrcmple                                                     
0000af2d  DrawTime                                                             
0000afb1  ti_sysbios_family_arm_m3_Hwi_postInit__I                             
0000b0b7  I2CTiva_transfer                                                     
0000b135  ADCSequenceStepConfigure                                             
0000b229  __aeabi_memclr                                                       
0000b229  __aeabi_memclr4                                                      
0000b229  __aeabi_memclr8                                                      
0000b22b  __aeabi_memset                                                       
0000b22b  __aeabi_memset4                                                      
0000b22b  __aeabi_memset8                                                      
0000b231  memset                                                               
0000b2a5  getAcceleration                                                      
0000b31d  ADCTriggerFxn                                                        
0000b391  ti_sysbios_knl_Clock_start__E                                        
0000b405  OPT3001Convert                                                       
0000b475  OnGraphsMain                                                         
0000b4e5  ti_sysbios_knl_Clock_TimerProxy_getMaxTicks__E                       
0000b4e9  ti_sysbios_knl_Clock_workFunc__E                                     
0000b559  ti_sysbios_knl_Task_exit__E                                          
0000b637  __aeabi_d2f                                                          
0000b6a5  __aeabi_ldivmod                                                      
0000b715  xdc_runtime_System_formatNum__I                                      
0000b785  PWMTimerTiva_control                                                 
0000b7f1  asctime                                                              
0000b85d  ti_sysbios_family_arm_m3_Hwi_Object__create__S                       
0000b8c9  ti_sysbios_knl_Swi_restoreHwi__E                                     
0000b9a1  xdc_runtime_Error_print__E                                           
0000ba0d  xdc_runtime_Memory_alloc__E                                          
0000ba79  PWMTiva_close                                                        
0000bae5  DrawDayNight                                                         
0000bb4d  GrContextInit                                                        
0000bbb5  GrStringWidthGet                                                     
0000bc1d  IntEnable                                                            
0000bd55  __TI_decompress_lzss                                                 
0000bdbd  GrContextClipRegionSet                                               
0000be23  GrRectDraw                                                           
0000be89  OPT3001Read                                                          
0000beef  xdc_runtime_Core_deleteObject__I                                     
0000bf55  GPIO_hwiIntFxn                                                       
0000bfb9  OPT3001Test                                                          
0000c01d  WidgetMessageQueueProcess                                            
0000c081  frexp                                                                
0000c081  frexpl                                                               
0000c0e5  setupLightSensor                                                     
0000c149  ti_sysbios_family_arm_lm4_Timer_Module_startup__E                    
0000c1ad  ti_sysbios_family_arm_m3_Hwi_create                                  
0000c211  ti_sysbios_family_arm_m3_Hwi_dispatchC__I                            
0000c275  ti_sysbios_hal_Hwi_create                                            
0000c33d  TimerConfigure                                                       
0000c3fd  statesFxn                                                            
0000c45d  taskLight                                                            
0000c4bd  ti_sysbios_knl_Clock_destruct                                        
0000c4c1  ti_sysbios_knl_Task_schedule__I                                      
0000c521  WidgetMessageSendPreOrder                                            
0000c639  getLight                                                             
0000c695  ti_sysbios_knl_Queue_destruct                                        
0000c699  ti_sysbios_knl_Swi_run__I                                            
0000c6f5  ti_sysbios_knl_Semaphore_destruct                                    
0000c6f9  ti_sysbios_knl_Swi_schedule__I                                       
0000c755  xdc_runtime_Error_getSite__E                                         
0000c759  ti_sysbios_knl_Task_Module_startup__E                                
0000c7b5  ti_sysbios_knl_Task_create                                           
0000c811  ti_sysbios_knl_Task_startCore__E                                     
0000c86d  xdc_runtime_Text_putLab__E                                           
0000c925  _c_int00                                                             
0000c97d  HOSTwrite                                                            
0000c9d5  TimerControlTrigger                                                  
0000ca2d  ti_sysbios_family_arm_m3_Hwi_construct                               
0000ca85  ti_sysbios_family_arm_m3_Hwi_initStacks__E                           
0000cadd  GPIOIntTypeSet                                                       
0000cb89  EK_TM4C1294XL_initUART                                               
0000cbdd  __TI_ltoa                                                            
0000cc85  xdc_runtime_Assert_raise__I                                          
0000cd2d  ADC0_Init                                                            
0000cd7d  ADCSequenceConfigure                                                 
0000cdcd  GPIO_setCallback                                                     
0000ce1d  GPIO_toggle                                                          
0000ce6d  GPIO_write                                                           
0000cebd  OPT3001WriteI2C                                                      
0000cf0d  UARTTiva_writeCancel                                                 
0000cfad  xdc_runtime_System_Module_GateProxy_enter__E                         
0000cfb1  ti_sysbios_family_arm_m3_Hwi_Module_startup__E                       
0000d001  xdc_runtime_Startup_exec__E                                          
0000d051  xdc_runtime_Text_visitRope2__I                                       
0000d0a1  I2CMasterInitExpClk                                                  
0000d0ed  OnMainMenu                                                           
0000d139  OnSettingsMain                                                       
0000d185  UARTTiva_close                                                       
0000d1d1  WidgetRemove                                                         
0000d21d  atoi                                                                 
0000d269  copy_in                                                              
0000d2b5  drawSettingValue                                                     
0000d301  initUART                                                             
0000d34d  snprintf                                                             
0000d399  ti_sysbios_family_arm_lm4_Timer_setAvailMask__E                      
0000d3e5  xdc_runtime_System_Module_GateProxy_leave__E                         
0000d3e9  ti_sysbios_heaps_HeapMem_getStats__E                                 
0000d435  xdc_runtime_System_aprintf_va__F                                     
0000d439  ti_sysbios_knl_Swi_runLoop__I                                        
0000d485  xdc_runtime_System_printf_va__F                                      
0000d489  ti_sysbios_knl_Task_allBlockedFunction__I                            
0000d4d5  PWMTimerTiva_close                                                   
0000d569  GPIOPinConfigure                                                     
0000d5b1  HOSTtime                                                             
0000d641  accelThreshold                                                       
0000d689  __aeabi_d2iz                                                         
0000d6d1  ti_sysbios_family_arm_m3_Hwi_disableInterrupt__E                     
0000d6d1  ti_sysbios_hal_Hwi_HwiProxy_disableInterrupt__E                      
0000d6d1  ti_sysbios_hal_Hwi_disableInterrupt__E                               
0000d719  ti_sysbios_family_arm_m3_Hwi_enableInterrupt__E                      
0000d719  ti_sysbios_hal_Hwi_HwiProxy_enableInterrupt__E                       
0000d719  ti_sysbios_hal_Hwi_enableInterrupt__E                                
0000d761  ti_sysbios_family_arm_m3_Hwi_excReserved__I                          
0000d7a9  writeI2C                                                             
0000d7f1  GrLineDrawH                                                          
0000d837  GrLineDrawV                                                          
0000d8c3  RingBuf_put                                                          
0000d909  UARTConfigSetExpClk                                                  
0000d94f  xdc_runtime_Core_assignParams__I                                     
0000d995  __aeabi_d2uiz                                                        
0000d9d9  ti_sysbios_family_arm_lm4_Timer_isrStub__E                           
0000da21  ti_sysbios_family_arm_m3_Hwi_getStackInfo__E                         
0000da21  ti_sysbios_hal_Hwi_HwiProxy_getStackInfo__E                          
0000da21  ti_sysbios_hal_Hwi_getStackInfo__E                                   
0000da69  ti_sysbios_knl_Swi_post__E                                           
0000daad  xdc_runtime_Error_setX__E                                            
0000daf1  xdc_runtime_SysMin_flush__E                                          
0000daf1  xdc_runtime_System_SupportProxy_flush__E                             
0000daf1  xdc_runtime_System_flush__E                                          
0000db35  xdc_runtime_Text_xprintf__I                                          
0000dbbb  UARTTiva_writePolling                                                
0000dbfd  OPT3001ReadI2C                                                       
0000dc3d  RingBuf_get                                                          
0000dc7d  UARTTiva_read                                                        
0000dcbd  readI2C                                                              
0000dcfd  __aeabi_uidiv                                                        
0000dcfd  __aeabi_uidivmod                                                     
0000dd3d  sprintf                                                              
0000dd81  ti_sysbios_family_arm_lm4_Timer_startup__E                           
0000dd81  ti_sysbios_knl_Clock_TimerProxy_startup__E                           
0000de01  EK_TM4C1294XL_initI2C                                                
0000de3d  SSIConfigSetExpClk                                                   
0000de79  ti_sysbios_family_arm_m3_Hwi_excSvCall__I                            
0000deb9  ti_sysbios_heaps_HeapMem_init__I                                     
0000def9  ti_sysbios_knl_Swi_restore__E                                        
0000dfa9  I2C_init                                                             
0000dfe1  PWM_init                                                             
0000e019  SysCtlPeripheralReady                                                
0000e051  UART_init                                                            
0000e089  __TI_writemsg                                                        
0000e0b7  C$$IO$$                                                              
0000e0c1  __aeabi_f2d                                                          
0000e0f9  startMotor                                                           
0000e131  ti_sysbios_family_arm_m3_Hwi_excNoIsr__I                             
0000e169  ti_sysbios_knl_Clock_create                                          
0000e1a1  ti_sysbios_knl_Task_processVitalTaskFlag__I                          
0000e1d9  xdc_runtime_SysMin_putch__E                                          
0000e1d9  xdc_runtime_System_SupportProxy_putch__E                             
0000e211  xdc_runtime_System_atexit__E                                         
0000e27f  I2CTiva_close                                                        
0000e2b5  UARTTiva_readCancel                                                  
0000e2ed  SysCtlPeripheralEnable                                               
0000e321  __TI_readmsg                                                         
0000e359  ti_sysbios_family_arm_m3_Hwi_Instance_finalize__E                    
0000e391  ti_sysbios_family_arm_m3_Hwi_excNmi__I                               
0000e3c9  ti_sysbios_hal_Hwi_checkStack                                        
0000e3fd  ti_sysbios_knl_Clock_construct                                       
0000e431  xdc_runtime_Core_assignLabel__I                                      
0000e465  xdc_runtime_Text_printVisFxn__I                                      
0000e499  ti_sysbios_hal_Hwi_initStack                                         
0000e4cd  GPIO_enableInt                                                       
0000e4fd  GPIO_read                                                            
0000e52d  I2C_open                                                             
0000e55d  OnGraphAcceleration                                                  
0000e58d  PWMTiva_init                                                         
0000e5bd  PWM_open                                                             
0000e5ed  UART_open                                                            
0000e64d  readABC                                                              
0000e67d  ti_sysbios_BIOS_atExitFunc__I                                        
0000e6b1  ti_sysbios_family_arm_lm4_Timer_stop__E                              
0000e6e1  ti_sysbios_family_arm_m3_TaskSupport_start__E                        
0000e6e1  ti_sysbios_knl_Task_SupportProxy_start__E                            
0000e711  ti_sysbios_gates_GateHwi_Object__create__S                           
0000e741  ti_sysbios_gates_GateHwi_create                                      
0000e771  ti_sysbios_gates_GateMutex_Object__create__S                         
0000e7a1  ti_sysbios_heaps_HeapMem_Object__create__S                           
0000e7d1  ti_sysbios_knl_Event_pendTimeout__I                                  
0000e801  ti_sysbios_knl_Semaphore_construct                                   
0000e831  ti_sysbios_knl_Semaphore_pendTimeout__I                              
0000e861  ti_sysbios_knl_Task_unblockI__E                                      
0000e891  xdc_runtime_SysMin_abort__E                                          
0000e891  xdc_runtime_System_SupportProxy_abort__E                             
0000e8c1  xdc_runtime_System_processAtExit__E                                  
0000e8f1  GrStringNextCharGet                                                  
0000e91f  OPT3001Enable                                                        
0000e94d  __aeabi_i2d                                                          
0000e97b  GrFontBaselineGet                                                    
0000e9a7  GrFontHeightGet                                                      
0000e9d3  RectangularButtonMsgProc                                             
0000ea2d  ti_sysbios_knl_Clock_doTick__I                                       
0000ea59  ti_sysbios_knl_Event_construct                                       
0000ea85  ti_sysbios_knl_Queue_construct                                       
0000eab1  ti_sysbios_knl_Task_restore__E                                       
0000eadd  xdc_runtime_Text_cordText__E                                         
0000eb09  GPIODirModeSet                                                       
0000eb33  xdc_runtime_System_putchar__I                                        
0000eb85  OnGraphLight                                                         
0000ebad  OnGraphSpeed                                                         
0000ebd9  ti_sysbios_hal_Hwi_Instance_init__E                                  
0000ec01  ti_sysbios_knl_Swi_Module_startup__E                                 
0000ec29  GrFontInfoGet                                                        
0000ec4f  ti_sysbios_family_arm_m3_Hwi_pendSV__I                               
0000ec73  ti_sysbios_family_arm_m3_Hwi_return                                  
0000ec75  xdc_runtime_System_avprintf__E                                       
0000ec9d  OnGraphPower                                                         
0000ecc1  setAccelThreshold                                                    
0000ece5  ti_sysbios_BIOS_errorRaiseHook__I                                    
0000ed09  ti_sysbios_BIOS_registerRTSLock__I                                   
0000ed2d  ti_sysbios_BIOS_removeRTSLock__I                                     
0000ed51  ti_sysbios_BIOS_startFunc__I                                         
0000ed75  ti_sysbios_BIOS_RtsGateProxy_Object__delete__S                       
0000ed75  ti_sysbios_gates_GateMutex_Object__delete__S                         
0000ed75  ti_sysbios_heaps_HeapMem_Module_GateProxy_Object__delete__S          
0000ed99  ti_sysbios_knl_Clock_Module_startup__E                               
0000edc1  ti_sysbios_knl_Task_restoreHwi__E                                    
0000ede5  xdc_runtime_System_vprintf__E                                        
0000ee09  GrFontGlyphDataGet                                                   
0000ee2b  PWMGenConfigure                                                      
0000ee4d  PWMTiva_getPeriodCounts                                              
0000ee71  ti_sysbios_family_arm_lm4_Timer_write__I                             
0000ee93  xdc_runtime_SysMin_output__I                                         
0000eeb5  ADCFxn                                                               
0000eed5  GPIO_clearInt                                                        
0000eef5  UARTDisable                                                          
0000ef55  __aeabi_ui2d                                                         
0000ef75  setSpeed                                                             
0000ef95  ti_sysbios_BIOS_rtsLock__I                                           
0000efb5  ti_sysbios_family_arm_m3_Hwi_Object__delete__S                       
0000efb5  ti_sysbios_hal_Hwi_HwiProxy_Object__delete__S                        
0000efd5  ti_sysbios_family_arm_m3_Hwi_excHandlerAsm__I                        
0000eff9  ti_sysbios_family_arm_m3_Hwi_excHandler__I                           
0000f019  ti_sysbios_gates_GateHwi_Object__delete__S                           
0000f019  xdc_runtime_Main_Module_GateProxy_Object__delete__S                  
0000f019  xdc_runtime_System_Module_GateProxy_Object__delete__S                
0000f039  ti_sysbios_heaps_HeapMem_Object__delete__S                           
0000f039  xdc_runtime_Memory_HeapProxy_Object__delete__S                       
0000f059  ti_sysbios_knl_Clock_Object__destruct__S                             
0000f079  ti_sysbios_knl_Idle_run__E                                           
0000f099  ti_sysbios_knl_Semaphore_Object__destruct__S                         
0000f0b9  xdc_runtime_Registry_findById__E                                     
0000f0d9  xdc_runtime_SysMin_Module_startup__E                                 
0000f0f9  ADCSequenceDataGet                                                   
0000f117  GrFontCodepageGet                                                    
0000f135  PWMPulseWidthSet                                                     
0000f153  PWMTiva_getPeriodMicroSecs                                           
0000f171  WidgetAdd                                                            
0000f18f  ti_sysbios_family_xxx_Hwi_switchAndRunFunc                           
0000f1ad  WidgetPointerMessage                                                 
0000f1e5  heartBeatFxn                                                         
0000f201  memccpy                                                              
0000f21d  ti_sysbios_family_arm_m3_Hwi_Object__destruct__S                     
0000f239  ti_sysbios_gates_GateMutex_Instance_init__E                          
0000f255  ti_sysbios_hal_Hwi_HwiProxy_create                                   
0000f271  ti_sysbios_knl_Queue_Object__destruct__S                             
0000f291  ti_sysbios_knl_Queue_put__E                                          
0000f2b1  ti_sysbios_knl_Task_enter__I                                         
0000f2cd  xdc_runtime_Error_raiseX__E                                          
0000f2e9  xdc_runtime_Memory_valloc__E                                         
0000f305  xdc_runtime_SysMin_exit__E                                           
0000f305  xdc_runtime_System_SupportProxy_exit__E                              
0000f321  xdc_runtime_System_abort__E                                          
0000f33d  copysign                                                             
0000f33d  copysignl                                                            
0000f357  ti_sysbios_family_arm_m3_Hwi_Handle__label__S                        
0000f357  ti_sysbios_hal_Hwi_HwiProxy_Handle__label__S                         
0000f371  ti_sysbios_gates_GateHwi_Handle__label__S                            
0000f371  xdc_runtime_Main_Module_GateProxy_Handle__label__S                   
0000f371  xdc_runtime_System_Module_GateProxy_Handle__label__S                 
0000f38b  ti_sysbios_BIOS_RtsGateProxy_Handle__label__S                        
0000f38b  ti_sysbios_gates_GateMutex_Handle__label__S                          
0000f38b  ti_sysbios_heaps_HeapMem_Module_GateProxy_Handle__label__S           
0000f3a5  ti_sysbios_heaps_HeapMem_Handle__label__S                            
0000f3a5  xdc_runtime_Memory_HeapProxy_Handle__label__S                        
0000f3bf  ti_sysbios_knl_Swi_Handle__label__S                                  
0000f3d9  ti_sysbios_knl_Task_Handle__label__S                                 
0000f3f3  xdc_runtime_System_aprintf__E                                        
0000f40d  xdc_runtime_System_printf__E                                         
0000f427  GPIOPinTypeGPIOOutput                                                
0000f43f  TimerControlLevel                                                    
0000f459  TimerDisable                                                         
0000f471  UART_Params_init                                                     
0000f489  _args_main                                                           
0000f4d1  accelEStopIntterupt                                                  
0000f4e9  ti_sysbios_BIOS_rtsUnlock__I                                         
0000f501  ti_sysbios_family_arm_lm4_Timer_Module__startupDone__F               
0000f501  ti_sysbios_family_arm_lm4_Timer_Module__startupDone__S               
0000f501  ti_sysbios_knl_Clock_TimerProxy_Module__startupDone__S               
0000f519  ti_sysbios_family_arm_m3_Hwi_Module__startupDone__F                  
0000f519  ti_sysbios_family_arm_m3_Hwi_Module__startupDone__S                  
0000f519  ti_sysbios_hal_Hwi_HwiProxy_Module__startupDone__S                   
0000f531  ti_sysbios_family_arm_m3_TaskSupport_swap__E                         
0000f531  ti_sysbios_knl_Task_SupportProxy_swap__E                             
0000f53d  ti_sysbios_knl_Task_swapReturn                                       
0000f549  ti_sysbios_gates_GateMutex_leave__E                                  
0000f561  ti_sysbios_knl_Task_sleepTimeout__I                                  
0000f579  xdc_runtime_Error_check__E                                           
0000f591  xdc_runtime_System_exit__E                                           
0000f5a9  xdc_runtime_Text_ropeText__E                                         
0000f5c1  GrStringDraw                                                         
0000f5d7  I2CMasterErr                                                         
0000f5ed  strchr                                                               
0000f603  ti_sysbios_BIOS_exitFunc__I                                          
0000f6df  CanvasMsgProc                                                        
0000f71d  OnSettingAcceleration                                                
0000f731  OnSettingCurrent                                                     
0000f745  OnSettingSpeed                                                       
0000f759  PWMClockSet                                                          
0000f76d  SysCtlPWMClockSet                                                    
0000f781  TouchScreenCallbackSet                                               
0000f795  UARTEnable                                                           
0000f7a9  WidgetMutexGet                                                       
0000f7bd  getSpeed                                                             
0000f7d1  strcpy                                                               
0000f7e5  strlen                                                               
0000f7f9  ti_sysbios_family_arm_m3_Hwi_Object__get__S                          
0000f811  ti_sysbios_family_arm_m3_Hwi_switchFromBootStack__E                  
0000f811  ti_sysbios_hal_Hwi_HwiProxy_switchFromBootStack__E                   
0000f811  ti_sysbios_hal_Hwi_switchFromBootStack__E                            
0000f825  ti_sysbios_heaps_HeapMem_Object__get__S                              
0000f839  ti_sysbios_knl_Event_Instance_init__E                                
0000f84d  ti_sysbios_knl_Swi_Object__get__S                                    
0000f861  GPIOPinTypeADC                                                       
0000f873  GPIOPinTypeEthernetLED                                               
0000f885  GPIOPinTypeGPIOInput                                                 
0000f897  GPIOPinTypeI2C                                                       
0000f8a9  GPIOPinTypeI2CSCL                                                    
0000f8bb  GPIOPinTypePWM                                                       
0000f8cd  GPIOPinTypeSSI                                                       
0000f8df  GPIOPinTypeTimer                                                     
0000f8f1  GPIOPinTypeUART                                                      
0000f903  GPIOPinTypeUSBAnalog                                                 
0000f915  GPIOPinTypeUSBDigital                                                
0000f927  PWMGenPeriodGet                                                      
0000f939  PWMOutputInvert                                                      
0000f94b  PWMOutputState                                                       
0000f95d  RingBuf_construct                                                    
0000f96f  SSIDataGetNonBlocking                                                
0000f981  TimerLoadSet                                                         
0000f993  TimerMatchSet                                                        
0000f9a5  TimerPrescaleMatchSet                                                
0000f9b7  TimerPrescaleSet                                                     
0000f9c9  ti_sysbios_hal_Hwi_Module_startup__E                                 
0000f9db  wcslen                                                               
0000f9ed  xdc_runtime_Startup_exec__I                                          
0000fa01  ti_catalog_arm_cortexm4_tiva_ce_Boot_init__I                         
0000fa11  ADCIntEnable                                                         
0000fa21  I2C_Params_init                                                      
0000fa31  PWMGenPeriodSet                                                      
0000fa41  PWM_Params_init                                                      
0000fa51  incrementTime                                                        
0000fa71  sensorsFxn                                                           
0000fa81  swiAcceleration                                                      
0000fa91  swiLight                                                             
0000faa1  ti_sysbios_BIOS_getCpuFreq__E                                        
0000fab1  ti_sysbios_BIOS_setThreadType__E                                     
0000fac1  osi_start                                                            
0000fac1  ti_sysbios_BIOS_start__E                                             
0000fad1  ti_sysbios_family_arm_m3_TaskSupport_glue                            
0000fae1  ti_sysbios_gates_GateMutex_Instance_finalize__E                      
0000faf1  ti_sysbios_hal_Hwi_HwiProxy_Object__create__S                        
0000fb01  ti_sysbios_knl_Semaphore_Instance_finalize__E                        
0000fb11  ti_sysbios_knl_Swi_disable__E                                        
0000fb21  ti_sysbios_knl_Task_Object__get__S                                   
0000fb31  osi_TaskDisable                                                      
0000fb31  ti_sysbios_knl_Task_disable__E                                       
0000fb41  xdc_runtime_Gate_leaveSystem__E                                      
0000fb51  xdc_runtime_Memory_free__E                                           
0000fb61  xdc_runtime_SysMin_ready__E                                          
0000fb61  xdc_runtime_System_SupportProxy_ready__E                             
0000fb71  xdc_runtime_System_vsnprintf__E                                      
0000fb81  xdc_runtime_Text_visitRope__I                                        
0000fb91  ADCSequenceEnable                                                    
0000fb9f  GPIOIntStatus                                                        
0000fbad  GrImageDraw                                                          
0000fbbb  TimerEnable                                                          
0000fbc9  UARTCharGetNonBlocking                                               
0000fbd7  UARTCharPutNonBlocking                                               
0000fbe5  __time32                                                             
0000fbe5  time                                                                 
0000fbf3  __TI_decompress_none                                                 
0000fc01  ti_sysbios_knl_Idle_loop__E                                          
0000fc11  ti_sysbios_knl_Queue_empty__E                                        
0000fc1f  GPIOIntEnable                                                        
0000fc2b  PWMGenDisable                                                        
0000fc37  PWMGenEnable                                                         
0000fc43  RingBuf_peek                                                         
0000fc4f  UARTFlowControlSet                                                   
0000fc5b  UARTTiva_init                                                        
0000fc69  _register_lock                                                       
0000fc75  _register_unlock                                                     
0000fc81  __TI_zero_init                                                       
0000fc8d  getState                                                             
0000fc99  set_estop                                                            
0000fca9  ti_sysbios_family_arm_lm4_Timer_getAvailMask__E                      
0000fcb9  ti_sysbios_family_arm_lm4_Timer_getMaxTicks__E                       
0000fcc5  ti_sysbios_family_arm_m3_Hwi_Params__init__S                         
0000fcc5  ti_sysbios_hal_Hwi_HwiProxy_Params__init__S                          
0000fcd1  ti_sysbios_family_arm_m3_Hwi_disableFxn__E                           
0000fcd1  ti_sysbios_hal_Hwi_HwiProxy_disable__E                               
0000fce1  ti_sysbios_family_arm_m3_TaskSupport_checkStack__E                   
0000fce1  ti_sysbios_knl_Task_SupportProxy_checkStack__E                       
0000fcf1  ti_sysbios_family_arm_m3_TaskSupport_getStackAlignment__E            
0000fcf1  ti_sysbios_knl_Task_SupportProxy_getStackAlignment__E                
0000fcfd  ti_sysbios_gates_GateHwi_Params__init__S                             
0000fcfd  xdc_runtime_Main_Module_GateProxy_Params__init__S                    
0000fcfd  xdc_runtime_System_Module_GateProxy_Params__init__S                  
0000fd09  ti_sysbios_gates_GateHwi_enter__E                                    
0000fd15  ti_sysbios_hal_Hwi_Params__init__S                                   
0000fd21  ti_sysbios_knl_Clock_Params__init__S                                 
0000fd31  ti_sysbios_knl_Clock_getTicks__E                                     
0000fd49  ti_sysbios_knl_Queue_Object__get__S                                  
0000fd55  ti_sysbios_knl_Semaphore_Params__init__S                             
0000fd79  ti_sysbios_knl_Task_Params__init__S                                  
0000fd85  updateGraphUI                                                        
0000fd91  xdc_runtime_Error_init__E                                            
0000fd9d  xdc_runtime_Gate_enterSystem__E                                      
0000fda9  xdc_runtime_Memory_calloc__E                                         
0000fdb5  xdc_runtime_Memory_getMaxDefaultTypeAlign__E                         
0000fdc1  ADCIntClear                                                          
0000fdcb  I2CMasterDisable                                                     
0000fdd5  I2CMasterEnable                                                      
0000fddf  I2CTiva_init                                                         
0000fde9  I2C_transfer                                                         
0000fdfd  PWMTimerTiva_getPeriodCounts                                         
0000fe07  PWM_setDuty                                                          
0000fe11  SSIDataPut                                                           
0000fe1b  SSIEnable                                                            
0000fe25  UARTCharGet                                                          
0000fe2f  UARTCharPut                                                          
0000fe39  UARTIntDisable                                                       
0000fe43  UARTIntStatus                                                        
0000fe59  ti_sysbios_hal_Hwi_Instance_finalize__E                              
0000fe63  xdc_runtime_Memory_HeapProxy_alloc__E                                
0000fe6d  xdc_runtime_Memory_HeapProxy_free__E                                 
0000fe77  EK_TM4C1294XL_initGPIO                                               
0000fe7f  GrMapISO8859_1_Unicode                                               
0000fe87  I2CMasterIntClear                                                    
0000fe8f  I2CMasterSlaveAddrSet                                                
0000fe9f  PWMTimerTiva_init                                                    
0000fea7  SSIBusy                                                              
0000feaf  UARTIntEnable                                                        
0000feb7  UARTRxErrorGet                                                       
0000fec1  __aeabi_errno_addr                                                   
0000fed1  ti_sysbios_family_arm_lm4_Timer_masterDisable__I                     
0000fed9  ti_sysbios_family_arm_m3_Hwi_doSwiRestore__I                         
0000fee1  ti_sysbios_family_arm_m3_Hwi_startup__E                              
0000fee1  ti_sysbios_hal_Hwi_HwiProxy_startup__E                               
0000fee1  ti_sysbios_hal_Hwi_startup__E                                        
0000fef1  GPIOPinWrite                                                         
0000fef7  GrContextFontSet                                                     
0000fefd  I2CMasterIntDisable                                                  
0000ff03  I2CMasterIntEnable                                                   
0000ff09  I2CTiva_control                                                      
0000ff0f  PWMTimerTiva_getPeriodMicroSecs                                      
0000ff15  SysCtlDelay                                                          
0000ff1b  UARTFIFOLevelSet                                                     
0000ff21  UARTRxErrorClear                                                     
0000ff27  WidgetMutexPut                                                       
0000ff31  ti_sysbios_family_arm_m3_Hwi_doTaskRestore__I                        
0000ff39  ti_sysbios_family_arm_m3_Hwi_restoreFxn__E                           
0000ff39  ti_sysbios_hal_Hwi_HwiProxy_restore__E                               
0000ff41  ti_sysbios_gates_GateHwi_leave__E                                    
0000ff49  ti_sysbios_heaps_HeapMem_isBlocking__E                               
0000ff51  ti_sysbios_knl_Clock_stop__E                                         
0000ff59  ti_sysbios_knl_Queue_Instance_init__E                                
0000ff61  ti_sysbios_knl_Swi_startup__E                                        
0000ff67  xdc_runtime_System_Module_startup__E                                 
0000ff71  ti_sysbios_gates_GateHwi_query__E                                    
0000ff71  xdc_runtime_Main_Module_GateProxy_query__E                           
0000ff71  xdc_runtime_System_Module_GateProxy_query__E                         
0000ff79  ti_sysbios_BIOS_RtsGateProxy_query__E                                
0000ff79  ti_sysbios_gates_GateMutex_query__E                                  
0000ff79  ti_sysbios_heaps_HeapMem_Module_GateProxy_query__E                   
0000ff81  ti_sysbios_knl_Task_startup__E                                       
0000ff89  ti_sysbios_gates_GateHwi_Instance_init__E                            
0000ff91  ti_sysbios_knl_Clock_logTick__E                                      
0000ff98  xdc_runtime_Text_charTab__A                                          
000118ba  ti_catalog_arm_cortexm4_tiva_ce_Boot_Module__id__C                   
000118bc  SENSITIVITY                                                          
00013827  xdc_runtime_Error_policy__C                                          
00013af8  _ctypes_                                                             
00013bfa  ti_sysbios_family_arm_m3_Hwi_Module__id__C                           
00013bfc  g_sFontCmss18                                                        
00013cc4  g_sFontCmss18b                                                       
00013d8c  xdc_runtime_Text_nodeTab__A                                          
00013eea  ti_sysbios_gates_GateMutex_Module__id__C                             
00014124  PWM_config                                                           
00014230  motorLibPWMTivaHWAttrs                                               
000143b0  ti_sysbios_knl_Task_Object__PARAMS__C                                
000143ec  ti_catalog_arm_cortexm4_tiva_ce_Boot_A_mustNotUseEnhancedClockMode__C
00014480  ti_sysbios_family_arm_m3_Hwi_Object__PARAMS__C                       
000144b0  uartTivaHWAttrs                                                      
000144e0  ti_sysbios_hal_Hwi_Object__PARAMS__C                                 
0001450c  UARTTiva_fxnTable                                                    
00014534  g_sKentec320x240x16_SSD2119                                          
0001455c  ti_sysbios_heaps_HeapMem_Module__FXNS__C                             
00014584  UART_config                                                          
000145a8  UART_defaultParams                                                   
000145cc  ti_sysbios_gates_GateHwi_Module__FXNS__C                             
000145f0  ti_sysbios_gates_GateMutex_Module__FXNS__C                           
00014614  ti_sysbios_heaps_HeapMem_Object__PARAMS__C                           
00014638  ti_sysbios_knl_Clock_Object__PARAMS__C                               
0001465c  ti_sysbios_knl_Semaphore_Object__PARAMS__C                           
00014680  PWMTimerTiva_fxnTable                                                
0001469c  PWMTimerTiva_MAX_PRESCALAR_VALUE                                     
0001469e  PWMTimerTiva_MAX_MATCH_VALUE                                         
000146a0  PWMTiva_fxnTable                                                     
000146bc  PWMTiva_MAX_PRESCALAR                                                
000146be  PWMTiva_MAX_MATCH_VALUE                                              
000146c0  ti_sysbios_family_arm_m3_Hwi_Object__DESC__C                         
000146e0  ti_sysbios_gates_GateHwi_Object__DESC__C                             
00014700  ti_sysbios_gates_GateMutex_Object__DESC__C                           
00014720  ti_sysbios_hal_Hwi_Object__DESC__C                                   
00014740  ti_sysbios_heaps_HeapMem_Object__DESC__C                             
00014760  ti_sysbios_knl_Clock_Object__DESC__C                                 
00014780  ti_sysbios_knl_Event_Object__DESC__C                                 
000147a0  ti_sysbios_knl_Queue_Object__DESC__C                                 
000147c0  ti_sysbios_knl_Semaphore_Object__DESC__C                             
000147e0  ti_sysbios_knl_Task_Object__DESC__C                                  
00014800  xdc_runtime_Startup_sfxnTab__A                                       
00014820  I2CTiva_fxnTable                                                     
0001483c  g_pi32TouchParameters                                                
00014858  I2C_config                                                           
00014870  ti_sysbios_gates_GateHwi_Object__PARAMS__C                           
00014888  ti_sysbios_gates_GateMutex_Object__PARAMS__C                         
000148a0  ti_sysbios_knl_Event_Object__PARAMS__C                               
000148b8  ti_sysbios_knl_Queue_Object__PARAMS__C                               
000148d0  GPIOTiva_config                                                      
000148e4  xdc_runtime_Startup_firstFxns__A                                     
000148f8  I2C_defaultParams                                                    
00014908  g_psDefaultCodePointMapTable                                         
00014918  motorLibPWMTimerTivaHWAttrs                                          
00014928  xdc_runtime_Startup_sfxnRts__A                                       
00014938  PWM_defaultParams                                                    
00014944  i2cTivaHWAttrs                                                       
00014960  ti_sysbios_family_arm_m3_Hwi_excHookFuncs__A                         
00014968  ti_sysbios_knl_Idle_funcList__C                                      
00014970  xdc_runtime_Startup_firstFxns__C                                     
00014978  xdc_runtime_Startup_lastFxns__C                                      
00014980  ti_catalog_arm_cortexm4_tiva_ce_Boot_Module__diagsEnabled__C         
00014984  ti_catalog_arm_cortexm4_tiva_ce_Boot_Module__diagsIncluded__C        
00014988  ti_catalog_arm_cortexm4_tiva_ce_Boot_Module__diagsMask__C            
0001498c  ti_sysbios_family_arm_lm4_Timer_enableFunc__C                        
00014990  ti_sysbios_family_arm_lm4_Timer_numTimerDevices__C                   
00014994  ti_sysbios_family_arm_lm4_Timer_startupNeeded__C                     
00014998  ti_sysbios_family_arm_m3_Hwi_E_NMI__C                                
0001499c  ti_sysbios_family_arm_m3_Hwi_E_alreadyDefined__C                     
000149a0  ti_sysbios_family_arm_m3_Hwi_E_busFault__C                           
000149a4  ti_sysbios_family_arm_m3_Hwi_E_debugMon__C                           
000149a8  ti_sysbios_family_arm_m3_Hwi_E_hardFault__C                          
000149ac  ti_sysbios_family_arm_m3_Hwi_E_memFault__C                           
000149b0  ti_sysbios_family_arm_m3_Hwi_E_noIsr__C                              
000149b4  ti_sysbios_family_arm_m3_Hwi_E_reserved__C                           
000149b8  ti_sysbios_family_arm_m3_Hwi_E_svCall__C                             
000149bc  ti_sysbios_family_arm_m3_Hwi_E_usageFault__C                         
000149c0  ti_sysbios_family_arm_m3_Hwi_NUM_INTERRUPTS__C                       
000149c4  ti_sysbios_family_arm_m3_Hwi_Object__count__C                        
000149c8  ti_sysbios_family_arm_m3_Hwi_ccr__C                                  
000149cc  ti_sysbios_family_arm_m3_Hwi_excHandlerFunc__C                       
000149d0  ti_sysbios_family_arm_m3_Hwi_excHookFuncs__C                         
000149d4  ti_sysbios_family_arm_m3_Hwi_nullIsrFunc__C                          
000149d8  ti_sysbios_family_arm_m3_Hwi_priGroup__C                             
000149dc  ti_sysbios_family_arm_m3_TaskSupport_stackAlignment__C               
000149e0  ti_sysbios_gates_GateMutex_A_badContext__C                           
000149e4  ti_sysbios_gates_GateMutex_Instance_State_sem__O                     
000149e8  ti_sysbios_gates_GateMutex_Module__diagsEnabled__C                   
000149ec  ti_sysbios_gates_GateMutex_Module__diagsIncluded__C                  
000149f0  ti_sysbios_gates_GateMutex_Module__diagsMask__C                      
000149f4  ti_sysbios_hal_Hwi_E_stackOverflow__C                                
000149f8  ti_sysbios_heaps_HeapMem_A_align__C                                  
000149fc  ti_sysbios_heaps_HeapMem_A_heapSize__C                               
00014a00  ti_sysbios_heaps_HeapMem_A_invalidFree__C                            
00014a04  ti_sysbios_heaps_HeapMem_A_zeroBlock__C                              
00014a08  ti_sysbios_heaps_HeapMem_E_memory__C                                 
00014a0c  ti_sysbios_heaps_HeapMem_Module__diagsEnabled__C                     
00014a10  ti_sysbios_heaps_HeapMem_Module__diagsIncluded__C                    
00014a14  ti_sysbios_heaps_HeapMem_Module__diagsMask__C                        
00014a18  ti_sysbios_heaps_HeapMem_Module__gateObj__C                          
00014a1c  ti_sysbios_heaps_HeapMem_Object__count__C                            
00014a20  ti_sysbios_heaps_HeapMem_reqAlign__C                                 
00014a24  ti_sysbios_knl_Clock_A_badThreadType__C                              
00014a28  ti_sysbios_knl_Clock_Module_State_clockQ__O                          
00014a2c  ti_sysbios_knl_Clock_Module__diagsEnabled__C                         
00014a30  ti_sysbios_knl_Clock_Module__diagsIncluded__C                        
00014a34  ti_sysbios_knl_Clock_Module__diagsMask__C                            
00014a38  ti_sysbios_knl_Event_A_badContext__C                                 
00014a3c  ti_sysbios_knl_Event_A_eventInUse__C                                 
00014a40  ti_sysbios_knl_Event_A_nullEventId__C                                
00014a44  ti_sysbios_knl_Event_A_nullEventMasks__C                             
00014a48  ti_sysbios_knl_Event_A_pendTaskDisabled__C                           
00014a4c  ti_sysbios_knl_Event_Instance_State_pendQ__O                         
00014a50  ti_sysbios_knl_Event_Module__diagsEnabled__C                         
00014a54  ti_sysbios_knl_Event_Module__diagsIncluded__C                        
00014a58  ti_sysbios_knl_Event_Module__diagsMask__C                            
00014a5c  ti_sysbios_knl_Idle_funcList__A                                      
00014a60  ti_sysbios_knl_Semaphore_A_badContext__C                             
00014a64  ti_sysbios_knl_Semaphore_A_noEvents__C                               
00014a68  ti_sysbios_knl_Semaphore_A_overflow__C                               
00014a6c  ti_sysbios_knl_Semaphore_A_pendTaskDisabled__C                       
00014a70  ti_sysbios_knl_Semaphore_Instance_State_pendQ__O                     
00014a74  ti_sysbios_knl_Semaphore_Module__diagsEnabled__C                     
00014a78  ti_sysbios_knl_Semaphore_Module__diagsIncluded__C                    
00014a7c  ti_sysbios_knl_Semaphore_Module__diagsMask__C                        
00014a80  ti_sysbios_knl_Swi_Object__count__C                                  
00014a84  ti_sysbios_knl_Task_A_badPriority__C                                 
00014a88  ti_sysbios_knl_Task_A_badTaskState__C                                
00014a8c  ti_sysbios_knl_Task_A_badThreadType__C                               
00014a90  ti_sysbios_knl_Task_A_badTimeout__C                                  
00014a94  ti_sysbios_knl_Task_A_noPendElem__C                                  
00014a98  ti_sysbios_knl_Task_A_sleepTaskDisabled__C                           
00014a9c  ti_sysbios_knl_Task_E_spOutOfBounds__C                               
00014aa0  ti_sysbios_knl_Task_E_stackOverflow__C                               
00014aa4  ti_sysbios_knl_Task_Module_State_inactiveQ__O                        
00014aa8  ti_sysbios_knl_Task_Module__diagsEnabled__C                          
00014aac  ti_sysbios_knl_Task_Module__diagsIncluded__C                         
00014ab0  ti_sysbios_knl_Task_Module__diagsMask__C                             
00014ab4  ti_sysbios_knl_Task_Object__count__C                                 
00014ab8  ti_sysbios_knl_Task_allBlockedFunc__C                                
00014abc  ti_sysbios_knl_Task_defaultStackHeap__C                              
00014ac0  ti_sysbios_knl_Task_defaultStackSize__C                              
00014ac4  ti_sysbios_knl_Task_numConstructedTasks__C                           
00014ac8  xdc_runtime_Assert_E_assertFailed__C                                 
00014acc  xdc_runtime_Core_A_initializedParams__C                              
00014ad0  xdc_runtime_Core_Module__diagsEnabled__C                             
00014ad4  xdc_runtime_Core_Module__diagsIncluded__C                            
00014ad8  xdc_runtime_Core_Module__diagsMask__C                                
00014adc  xdc_runtime_Error_E_generic__C                                       
00014ae0  xdc_runtime_Error_E_memory__C                                        
00014ae4  xdc_runtime_Error_Module__diagsEnabled__C                            
00014ae8  xdc_runtime_Error_Module__diagsIncluded__C                           
00014aec  xdc_runtime_Error_Module__diagsMask__C                               
00014af0  xdc_runtime_Error_Module__loggerFxn8__C                              
00014af4  xdc_runtime_Error_Module__loggerObj__C                               
00014af8  xdc_runtime_Error_policyFxn__C                                       
00014afc  xdc_runtime_Error_raiseHook__C                                       
00014b00  xdc_runtime_IGateProvider_Interface__BASE__C                         
00014b04  xdc_runtime_IHeap_Interface__BASE__C                                 
00014b08  xdc_runtime_IModule_Interface__BASE__C                               
00014b0c  xdc_runtime_Log_L_error__C                                           
00014b10  xdc_runtime_Memory_defaultHeapInstance__C                            
00014b14  xdc_runtime_Startup_execImpl__C                                      
00014b18  xdc_runtime_Startup_maxPasses__C                                     
00014b1c  xdc_runtime_Startup_sfxnRts__C                                       
00014b20  xdc_runtime_Startup_sfxnTab__C                                       
00014b24  xdc_runtime_SysMin_bufSize__C                                        
00014b28  xdc_runtime_SysMin_outputFunc__C                                     
00014b2c  xdc_runtime_System_Module__gateObj__C                                
00014b30  xdc_runtime_System_abortFxn__C                                       
00014b34  xdc_runtime_System_exitFxn__C                                        
00014b38  xdc_runtime_System_extendFxn__C                                      
00014b3c  xdc_runtime_System_maxAtexitHandlers__C                              
00014b40  xdc_runtime_Text_charTab__C                                          
00014b44  xdc_runtime_Text_nameEmpty__C                                        
00014b48  xdc_runtime_Text_nameStatic__C                                       
00014b4c  xdc_runtime_Text_nameUnknown__C                                      
00014b50  xdc_runtime_Text_nodeTab__C                                          
00014b54  xdc_runtime_Text_visitRopeFxn__C                                     
00014b58  ti_sysbios_hal_Hwi_Module__id__C                                     
00014b5a  ti_sysbios_heaps_HeapMem_Module__id__C                               
00014b5c  ti_sysbios_knl_Clock_Module__id__C                                   
00014b5e  ti_sysbios_knl_Event_Module__id__C                                   
00014b60  ti_sysbios_knl_Semaphore_Module__id__C                               
00014b62  ti_sysbios_knl_Task_Module__id__C                                    
00014b64  xdc_runtime_Core_Module__id__C                                       
00014b66  xdc_runtime_Error_Module__loggerDefined__C                           
00014b68  xdc_runtime_Error_maxDepth__C                                        
00014b6a  xdc_runtime_Main_Module__id__C                                       
00014b6c  xdc_runtime_Memory_Module__id__C                                     
00014b6e  xdc_runtime_SysMin_flushAtExit__C                                    
00014b70  xdc_runtime_Text_charCnt__C                                          
00014b72  xdc_runtime_Text_isLoaded__C                                         
00014b74  xdc_runtime_Text_registryModsLastId__C                               
00014b76  xdc_runtime_Text_unnamedModsLastId__C                                
00014b78  __TI_static_base__                                                   
00014f84  __TI_Handler_Table_Base                                              
00014f90  __TI_Handler_Table_Limit                                             
00014fa0  __TI_CINIT_Base                                                      
00014fb8  __TI_CINIT_Limit                                                     
20000000  __start___llvm_prf_cnts                                              
20000000  __stop___llvm_prf_cnts                                               
20000000  ti_sysbios_family_arm_m3_Hwi_ramVectors                              
20000360  ti_sysbios_knl_Task_Instance_State_0_stack__A                        
20000b60  ti_sysbios_knl_Task_Instance_State_1_stack__A                        
20001360  ti_sysbios_knl_Task_Instance_State_2_stack__A                        
20001560  taskLightStack                                                       
20002560  taskAccelStack                                                       
20002d60  ti_sysbios_heaps_HeapMem_Instance_State_0_buf__A                     
20003160  xdc_runtime_SysMin_Module_State_0_outbuf__A                          
20003560  ti_sysbios_family_arm_m3_Hwi_dispatchTable                           
200038c0  uartTivaObjects                                                      
20003b98  __CIOBUF_                                                            
20003d48  i2cTivaObjects                                                       
20003dc8  uartTivaRingBuffer                                                   
20003e08  motorLibPWMObjects                                                   
20003e40  eb                                                                   
20003e70  sContext                                                             
20003e9c  clkSensorParams                                                      
20003ec0  clockAccelerationStruct                                              
20003ee4  clockLightStruct                                                     
20003f08  clockUpdateGraph                                                     
20003f2c  clockUpdateTime                                                      
20003f50  uartParams                                                           
20003fd4  maxTime                                                              
20003ff4  minTime                                                              
20004030  semAccelStruct                                                       
2000404c  semLightStruct                                                       
20004068  semStruct                                                            
20004084  gHwiprms                                                             
2000409c  lightBuffer                                                          
200040b4  motorLibPWMTimerObjects                                              
200040cc  accelerationBuffer                                                   
200040e0  evtStruct                                                            
200040f4  valueText                                                            
20004118  av                                                                   
20004124  pui32ADC0Value                                                       
20004138  graphMax                                                             
20004140  graphMin                                                             
20004148  parmbuf                                                              
20004150  SysTicks                                                             
20004154  accel_avg                                                            
20004158  accel_mag                                                            
2000415c  acceleration                                                         
20004160  acceleration_avg                                                     
20004164  adc0                                                                 
20004168  current                                                              
2000416c  data_Graph                                                           
20004170  delta_rpm                                                            
20004174  delta_time                                                           
20004178  error                                                                
2000417c  evtHandle                                                            
20004180  g_currentLimit                                                       
20004184  g_drawingGraph                                                       
20004188  g_motorSpeed                                                         
2000418c  g_numPlotOverflow                                                    
20004190  g_numPlotPoints                                                      
20004194  g_pi32ParmSet                                                        
2000419c  g_sCurrentPanel                                                      
200041a0  g_ui32SysClock                                                       
200041a4  gateHwi                                                              
200041ac  graphIntMax                                                          
200041b0  graphIntMin                                                          
200041b4  hA                                                                   
200041b8  hB                                                                   
200041bc  hC                                                                   
200041c0  hallA                                                                
200041c4  hallB                                                                
200041c8  hallC                                                                
200041cc  light_i2c                                                            
200041d0  output                                                               
200041d4  previousPoint                                                        
200041d8  rpm_avg                                                              
200041dc  rpm_from_UI                                                          
200041e0  semAccelHandle                                                       
200041e4  semHandle                                                            
200041e8  semLightHandle                                                       
200041ec  t                                                                    
200041f0  uart                                                                 
200041f4  voltage                                                              
200041f8  y_graph_step                                                         
200041fc  g_i16TouchX                                                          
200041fe  g_i16TouchY                                                          
20004200  ThresholdAccel                                                       
20004201  e_event                                                              
20004202  e_stop                                                               
20004203  g_accelerationLimit                                                  
20004204  motorStartedUI                                                       
20004205  motorState                                                           
20004206  print_from_clock                                                     
20004207  running                                                              
20004208  success                                                              
20004209  updateGraph                                                          
2000420c  ti_sysbios_knl_Task_Object__table__V                                 
200042f0  ti_sysbios_knl_Swi_Module_State_0_readyQ__A                          
20004370  motor                                                                
20004374  prevMotor                                                            
20004378  prevSysTick                                                          
2000437c  deltaPos                                                             
20004380  clock_time_mins                                                      
20004384  clock_time_secs                                                      
20004388  rpm_actual                                                           
2000438c  acceleration_sum                                                     
20004390  rpm_prev                                                             
20004394  integral_error                                                       
20004398  rpm_desired                                                          
2000439c  rpm_int                                                              
200043a0  jump                                                                 
200043a4  Kp                                                                   
200043a8  Ki                                                                   
200043ac  clock_count                                                          
200043b0  rpm_sum                                                              
200043b4  min_per_sysTick                                                      
200043b8  rotation                                                             
200043bc  rpm_sum_c                                                            
200043c0  dummy                                                                
200043c4  adc_test                                                             
200043c8  vref                                                                 
200043cc  stepVoltage                                                          
200043d0  shunt                                                                
200043d4  gain                                                                 
200043d8  g_sGraphAcceleration                                                 
20004428  g_sGraphBack                                                         
20004478  g_sGraphExit                                                         
200044c8  g_sGraphLight                                                        
20004518  g_sGraphOption                                                       
20004568  g_sGraphPower                                                        
200045b8  g_sGraphSpeed                                                        
20004608  g_sGraphTitle                                                        
20004658  g_sMotorOption                                                       
200046a8  g_sSetOption                                                         
200046f8  g_sSettingAcceleration                                               
20004748  g_sSettingBack                                                       
20004798  g_sSettingCurrent                                                    
200047e8  g_sSettingDecrease                                                   
20004838  g_sSettingExit                                                       
20004888  g_sSettingIncrease                                                   
200048d8  g_sSettingSpeed                                                      
20004928  g_sSettingTitle                                                      
20004978  g_sSettingValue                                                      
200049c8  ti_sysbios_knl_Task_Module__state__V                                 
20004a0c  g_sGraph                                                             
20004a4c  g_sGraphPage                                                         
20004a8c  g_sGraphsMainPage                                                    
20004acc  g_sMainPage                                                          
20004b0c  g_sSettingPage                                                       
20004b4c  g_sSettingsMainPage                                                  
20004b8c  ti_sysbios_family_arm_lm4_Timer_Module_State_0_device__A             
20004bcc  ti_sysbios_family_arm_lm4_Timer_Object__table__V                     
20004c0c  ti_sysbios_gates_GateMutex_Object__table__V                          
20004c44  ti_sysbios_family_arm_m3_Hwi_Module__state__V                        
20004c78  ti_sysbios_family_arm_m3_Hwi_Object__table__V                        
20004ca8  ti_sysbios_knl_Swi_Object__table__V                                  
20004cd8  g_sRoot                                                              
20004d06  ti_sysbios_family_arm_m3_Hwi_Module_State_0_excActive__A             
20004d08  ti_sysbios_knl_Clock_Module__state__V                                
20004d58  ti_sysbios_BIOS_Module__state__V                                     
20004d7c  gpioPinConfigs                                                       
20004d9c  ti_sysbios_family_arm_lm4_Timer_Module_State_0_handles__A            
20004dbc  ti_sysbios_knl_Task_Module_State_0_readyQ__A                         
20004ddc  ti_sysbios_knl_Swi_Module__state__V                                  
20004e10  ti_sysbios_heaps_HeapMem_Object__table__V                            
20004e28  x_graph_step                                                         
20004e2c  x_graph_start                                                        
20004e30  y_graph_start                                                        
20004e34  y_graph_max                                                          
20004e38  y_graph_end                                                          
20004e3c  onHomePage                                                           
20004e3e  xdc_runtime_Error_Module__state__V                                   
20004e40  _tz                                                                  
20004e50  ti_sysbios_family_arm_lm4_Timer_Module__state__V                     
20004e5c  xdc_runtime_SysMin_Module__state__V                                  
20004e68  _lock                                                                
20004e6c  _unlock                                                              
20004e70  gpioCallbackFunctions                                                
20004e78  ti_sysbios_family_arm_m3_Hwi_Module__root__V                         
20004e80  ti_sysbios_gates_GateHwi_Module__root__V                             
20004e88  ti_sysbios_gates_GateMutex_Module__root__V                           
20004e90  ti_sysbios_hal_Hwi_Module__root__V                                   
20004e98  ti_sysbios_heaps_HeapMem_Module__root__V                             
20004ea0  ti_sysbios_knl_Clock_Module__root__V                                 
20004ea8  ti_sysbios_knl_Event_Module__root__V                                 
20004eb0  ti_sysbios_knl_Queue_Module__root__V                                 
20004eb8  ti_sysbios_knl_Semaphore_Module__root__V                             
20004ec0  ti_sysbios_knl_Task_Module__root__V                                  
20004ec8  xdc_runtime_Registry_Module__state__V                                
20004ed0  xdc_runtime_Startup_Module__state__V                                 
20004ed8  xdc_runtime_System_Module_State_0_atexitHandlers__A                  
20004ee0  xdc_runtime_System_Module__state__V                                  
20004ef0  triggerThreshold                                                     
20004f04  errno                                                                
20004f08  main_func_sp                                                         
20004f0c  ti_sysbios_family_arm_m3_Hwi_Module_State_0_excContext__A            
20004f10  ti_sysbios_family_arm_m3_Hwi_Module_State_0_excStack__A              
20004f14  ti_sysbios_gates_GateHwi_Object__table__V                            
20004f18  ti_sysbios_knl_Task_Module_State_0_idleTask__A                       
20004f1c  g_i16TouchMin                                                        
20004f20  xdc_runtime_Memory_Module__state__V                                  
20004f28  __stack                                                              
20005228  __STACK_END                                                          
e000e000  ti_sysbios_family_arm_m3_Hwi_nvic                                    
ffffffff  __TI_pprof_out_hndl                                                  
ffffffff  __TI_prof_data_size                                                  
ffffffff  __TI_prof_data_start                                                 
ffffffff  __binit__                                                            
ffffffff  __c_args__                                                           
ffffffff  binit                                                                
UNDEFED   SHT$$INIT_ARRAY$$Base                                                
UNDEFED   SHT$$INIT_ARRAY$$Limit                                               

[1054 symbols]
